(dp1
S'East Timor'
p2
S'TL'
p3
sS'Canada'
p4
S'CA'
p5
sS'Sao Tome and Principe'
p6
S'ST'
p7
sS'Venezuela, Bolivarian Republic of'
p8
S'VE'
p9
sS'Guinea-Bissau'
p10
S'GW'
p11
sS'Serbia and Montenegro'
p12
S'CS'
p13
sS'Iran, Islamic Republic of'
p14
S'IR'
p15
sS'France, Metropolitan'
p16
S'FX'
p17
sS'Lithuania'
p18
S'LT'
p19
sS'Cambodia'
p20
S'KH'
p21
sS'Switzerland'
p22
S'CH'
p23
sS'Ethiopia'
p24
S'ET'
p25
sS'Aruba'
p26
S'AW'
p27
sS'Sri Lanka'
p28
S'LK'
p29
sS'Swaziland'
p30
S'SZ'
p31
sS'Svalbard and Jan Mayen Islands'
p32
S'SJ'
p33
sS'Argentina'
p34
S'AR'
p35
sS'Bolivia'
p36
S'BO'
p37
sS'Cameroon'
p38
S'CM'
p39
sS'Burkina Faso'
p40
S'BF'
p41
sS'Falkland Islands (Malvinas)'
p42
S'FK'
p43
sS'Turkmenistan'
p44
S'TM'
p45
sS'Bahrain'
p46
S'BH'
p47
sS'Saudi Arabia'
p48
S'SA'
p49
sS'Myanmar'
p50
S'MM'
p51
sS'Martinique'
p52
S'MQ'
p53
sS'Togo'
p54
S'TG'
p55
sS'American Samoa'
p56
S'AS'
p57
sS'Montserrat'
p58
S'MS'
p59
sS'United States Minor Outlying Islands'
p60
S'UM'
p61
sS'Cocos (Keeling) Islands'
p62
S'CC'
p63
sS'Faroe Islands'
p64
S'FO'
p65
sS'Guatemala'
p66
S'GT'
p67
sS'Bosnia and Herzegovina'
p68
S'BA'
p69
sS'Kuwait'
p70
S'KW'
p71
sS'Russian Federation'
p72
S'RU'
p73
sS'Germany'
p74
S'DE'
p75
sS'Saint Barthelemy'
p76
S'BL'
p77
sS'Virgin Islands, British'
p78
S'VG'
p79
sS'Dominica'
p80
S'DM'
p81
sS'Liberia'
p82
S'LR'
p83
sS'Netherlands'
p84
S'NL'
p85
sS'Micronesia, Federated States of'
p86
S'FM'
p87
sS'Pakistan'
p88
S'PK'
p89
sS'Oman'
p90
S'OM'
p91
sS'Tanzania'
p92
S'TZ'
p93
sS'Palestinian Territory'
p94
S'PS'
p95
sS'Albania'
p96
S'AL'
p97
sS'French Guiana'
p98
S'GF'
p99
sS'Niue'
p100
S'NU'
p101
sS'Vatican'
p102
S'VA'
p103
sS'Bahamas'
p104
S'BS'
p105
sS'Wallis and Futuna'
p106
S'WF'
p107
sS'New Zealand'
p108
S'NZ'
p109
sS'Yemen'
p110
S'YE'
p111
sS'Jersey'
p112
S'JE'
p113
sS'Jamaica'
p114
S'JM'
p115
sS'Greenland'
p116
S'GL'
p117
sS'Samoa'
p118
S'WS'
p119
sS'Macau'
p120
S'MO'
p121
sS'Norfolk Island'
p122
S'NF'
p123
sS'United Arab Emirates'
p124
S'AE'
p125
sS'Guam'
p126
S'GU'
p127
sS'Libya'
p128
S'LY'
p129
sS'Viet Nam'
p130
S'VN'
p131
sS'Azerbaijan'
p132
S'AZ'
p133
sS'Nicaragua'
p134
S'NI'
p135
sS'Lesotho'
p136
S'LS'
p137
sS'Saint Vincent and the Grenadines'
p138
S'VC'
p139
sS'Kenya'
p140
S'KE'
p141
sS'South Korea'
p142
S'KR'
p143
sS'Tajikistan'
p144
S'TJ'
p145
sS'Turkey'
p146
S'TR'
p147
sS'Afghanistan'
p148
S'AF'
p149
sS'Virgin Islands (British)'
p150
S'VG'
p151
sS'Bangladesh'
p152
S'BD'
p153
sS'Mauritania'
p154
S'MR'
p155
sS'Solomon Islands'
p156
S'SB'
p157
sS'Turks and Caicos Islands'
p158
S'TC'
p159
sS'Saint Lucia'
p160
S'LC'
p161
sS'Congo, Democratic Republic'
p162
S'CD'
p163
sS'San Marino'
p164
S'SM'
p165
sS'Mongolia'
p166
S'MN'
p167
sS'Taiwan, Province of China'
p168
S'TW'
p169
sS'Macedonia, the former Yugoslav Republic of'
p170
S'MK'
p171
sS'Syrian Arab Republic'
p172
S'SY'
p173
sS'Bermuda'
p174
S'BM'
p175
sS'Slovakia'
p176
S'SK'
p177
sS'Somalia'
p178
S'SO'
p179
sS'Peru'
p180
S'PE'
p181
sS'Vanuatu'
p182
S'VU'
p183
sS'Nauru'
p184
S'NR'
p185
sS'Seychelles'
p186
S'SC'
p187
sS'Norway'
p188
S'NO'
p189
sS"Cote d'Ivoire"
p190
S'CI'
p191
sS'Cook Islands'
p192
S'CK'
p193
sS'Benin'
p194
S'BJ'
p195
sS'Congo, the Democratic Republic of the'
p196
S'CD'
p197
sS'South Georgia and The South Sandwich Islands'
p198
S'GS'
p199
sS'Western Sahara'
p200
S'EH'
p201
sS'Singapore'
p202
S'SG'
p203
sS'Botswana'
p204
S'BW'
p205
sS'Montenegro'
p206
S'ME'
p207
sS'Saint Kitts and Nevis'
p208
S'KN'
p209
sS'Mayotte'
p210
S'YT'
p211
sS'Holy See (Vatican City State)'
p212
S'VA'
p213
sS'China'
p214
S'CN'
p215
sS'Armenia'
p216
S'AM'
p217
sS'Timor-Leste'
p218
S'TL'
p219
sS'Dominican Republic'
p220
S'DO'
p221
sS'Ukraine'
p222
S'UA'
p223
sS'Ghana'
p224
S'GH'
p225
sS'Tonga'
p226
S'TO'
p227
sS'Finland'
p228
S'FI'
p229
sS'Libyan Arab Jamahiriya'
p230
S'LY'
p231
sS'St. Helena'
p232
S'SH'
p233
sS'Indonesia'
p234
S'ID'
p235
sS'Central African Republic'
p236
S'CF'
p237
sS'Heard and McDonald Islands'
p238
S'HM'
p239
sS'Mauritius'
p240
S'MU'
p241
sS'Sweden'
p242
S'SE'
p243
sS'Belarus'
p244
S'BY'
p245
sS'Mali'
p246
S'ML'
p247
sS'Cura\xc7ao'
p248
S'CW'
p249
sS'Monaco'
p250
S'MC'
p251
sS'Russia'
p252
S'RU'
p253
sS'Bulgaria'
p254
S'BG'
p255
sS'Virgin Islands, U.S.'
p256
S'VI'
p257
sS'United States'
p258
S'US'
p259
sS'Romania'
p260
S'RO'
p261
sS'Angola'
p262
S'AO'
p263
sS'French Southern Territories'
p264
S'TF'
p265
sS'Chad'
p266
S'TD'
p267
sS'South Africa'
p268
S'ZA'
p269
sS'Tokelau'
p270
S'TK'
p271
sS'Cyprus'
p272
S'CY'
p273
sS'Christmas Island'
p274
S'CX'
p275
sS'South Georgia and the South Sandwich Islands'
p276
S'GS'
p277
sS'Brunei Darussalam'
p278
S'BN'
p279
sS'Qatar'
p280
S'QA'
p281
sS'Saint Helena, Ascension and Tristan Da Cunha'
p282
S'SH'
p283
sS'Malaysia'
p284
S'MY'
p285
sS'Austria'
p286
S'AT'
p287
sS'Mozambique'
p288
S'MZ'
p289
sS'Uganda'
p290
S'UG'
p291
sS'Korea, Republic of'
p292
S'KR'
p293
sS'Japan'
p294
S'JP'
p295
sS'Niger'
p296
S'NE'
p297
sS'Brazil'
p298
S'BR'
p299
sS'Virgin Islands (U.S.)'
p300
S'VI'
p301
sS'Pitcairn'
p302
S'PN'
p303
sS'Guinea'
p304
S'GN'
p305
sS'Panama'
p306
S'PA'
p307
sS'Guyana'
p308
S'GY'
p309
sS'Costa Rica'
p310
S'CR'
p311
sS'Luxembourg'
p312
S'LU'
p313
sS'Cape Verde'
p314
S'CV'
p315
sS'Andorra'
p316
S'AD'
p317
sS'Gibraltar'
p318
S'GI'
p319
sS'Ireland'
p320
S'IE'
p321
sS'Bonaire, Saint Eustatius and Saba'
p322
S'BQ'
p323
sS'Palau'
p324
S'PW'
p325
sS'Nigeria'
p326
S'NG'
p327
sS'Ecuador'
p328
S'EC'
p329
sS'Czech Republic'
p330
S'CZ'
p331
sS'Australia'
p332
S'AU'
p333
sS'Iran'
p334
S'IR'
p335
sS'Rwanda'
p336
S'RW'
p337
sS'Algeria'
p338
S'DZ'
p339
sS'Slovenia'
p340
S'SI'
p341
sS'El Salvador'
p342
S'SV'
p343
sS'Tuvalu'
p344
S'TV'
p345
sS'France'
p346
S'FR'
p347
sS'Belgium'
p348
S'BE'
p349
sS'Saint Pierre and Miquelon'
p350
S'PM'
p351
sS'Marshall Islands'
p352
S'MH'
p353
sS'Chile'
p354
S'CL'
p355
sS'Puerto Rico'
p356
S'PR'
p357
sS'Netherlands Antilles'
p358
S'AN'
p359
sS'Kiribati'
p360
S'KI'
p361
sS'Haiti'
p362
S'HT'
p363
sS'Belize'
p364
S'BZ'
p365
sS'Hong Kong'
p366
S'HK'
p367
sS'Sierra Leone'
p368
S'SL'
p369
sS'Georgia'
p370
S'GE'
p371
sS"Lao People's Democratic Republic"
p372
S'LA'
p373
sS'Mexico'
p374
S'MX'
p375
sS'Denmark'
p376
S'DK'
p377
sS'Poland'
p378
S'PL'
p379
sS'Moldova'
p380
S'MD'
p381
sS"C0te D'Ivoire"
p382
S'CI'
p383
sS'Morocco'
p384
S'MA'
p385
sS'Croatia'
p386
S'HR'
p387
sS'French Polynesia'
p388
S'PF'
p389
sS'Guernsey'
p390
S'GG'
p391
sS'Thailand'
p392
S'TH'
p393
sS'Namibia'
p394
S'NA'
p395
sS'Grenada'
p396
S'GD'
p397
sS'Wallis and Futuna Islands'
p398
S'WF'
p399
sS'Isle of Man'
p400
S'IM'
p401
sS'Tanzania, United Republic of'
p402
S'TZ'
p403
sS'Portugal'
p404
S'PT'
p405
sS'Estonia'
p406
S'EE'
p407
sS'Uruguay'
p408
S'UY'
p409
sS'Equatorial Guinea'
p410
S'GQ'
p411
sS'Lebanon'
p412
S'LB'
p413
sS'India'
p414
S'IN'
p415
sS'Svalbard and Jan Mayen'
p416
S'SJ'
p417
sS'Uzbekistan'
p418
S'UZ'
p419
sS'Tunisia'
p420
S'TN'
p421
sS'Djibouti'
p422
S'DJ'
p423
sS'Heard Island and McDonald Islands'
p424
S'HM'
p425
sS'Antigua and Barbuda'
p426
S'AG'
p427
sS'Spain'
p428
S'ES'
p429
sS'Colombia'
p430
S'CO'
p431
sS'Reunion'
p432
S'RE'
p433
sS'Burundi'
p434
S'BI'
p435
sS'Taiwan'
p436
S'TW'
p437
sS'Fiji'
p438
S'FJ'
p439
sS'Barbados'
p440
S'BB'
p441
sS'Madagascar'
p442
S'MG'
p443
sS'Italy'
p444
S'IT'
p445
sS'Bhutan'
p446
S'BT'
p447
sS'Sudan'
p448
S'SD'
p449
sS'Bolivia, Plurinational State of'
p450
S'BO'
p451
sS'Nepal'
p452
S'NP'
p453
sS'Micronesia'
p454
S'FM'
p455
sS'Maldives'
p456
S'MV'
p457
sS'Northern Mariana Islands'
p458
S'MP'
p459
sS'Suriname'
p460
S'SR'
p461
sS'Cayman Islands'
p462
S'KY'
p463
sS'Anguilla'
p464
S'AI'
p465
sS'Venezuela'
p466
S'VE'
p467
sS'Aland Islands'
p468
S'AX'
p469
sS'Israel'
p470
S'IL'
p471
sS'St. Pierre and Miquelon'
p472
S'PM'
p473
sS'Iceland'
p474
S'IS'
p475
sS'Zambia'
p476
S'ZM'
p477
sS'Senegal'
p478
S'SN'
p479
sS'Papua New Guinea'
p480
S'PG'
p481
sS'Malawi'
p482
S'MW'
p483
sS'Zimbabwe'
p484
S'ZW'
p485
sS'Jordan'
p486
S'JO'
p487
sS'Gambia'
p488
S'GM'
p489
sS'Kazakhstan'
p490
S'KZ'
p491
sS'Philippines'
p492
S'PH'
p493
sS'Moldova, Republic of'
p494
S'MD'
p495
sS'Eritrea'
p496
S'ER'
p497
sS'Kyrgyzstan'
p498
S'KG'
p499
sS'British Indian Ocean Territory'
p500
S'IO'
p501
sS'Iraq'
p502
S'IQ'
p503
sS"Korea, Democratic People's Republic of"
p504
S'KP'
p505
sS'New Caledonia'
p506
S'NC'
p507
sS'Macedonia'
p508
S'MK'
p509
sS'North Korea'
p510
S'KP'
p511
sS'Trinidad and Tobago'
p512
S'TT'
p513
sS'Macao'
p514
S'MO'
p515
sS'Latvia'
p516
S'LV'
p517
sS'Sint Maarten (Dutch Part)'
p518
S'SX'
p519
sS'Hungary'
p520
S'HU'
p521
sS'Syria'
p522
S'SY'
p523
sS'Guadeloupe'
p524
S'GP'
p525
sS'Saint Martin (French Part)'
p526
S'MF'
p527
sS'Honduras'
p528
S'HN'
p529
sS'Malta'
p530
S'MT'
p531
sS'Bouvet Island'
p532
S'BV'
p533
sS'Egypt'
p534
S'EG'
p535
sS'Liechtenstein'
p536
S'LI'
p537
sS'Cuba'
p538
S'CU'
p539
sS'Serbia'
p540
S'RS'
p541
sS'Comoros'
p542
S'KM'
p543
sS'United Kingdom'
p544
S'GB'
p545
sS'Antarctica'
p546
S'AQ'
p547
sS'Congo'
p548
S'CG'
p549
sS'Greece'
p550
S'GR'
p551
sS'Paraguay'
p552
S'PY'
p553
sS'Gabon'
p554
S'GA'
p555
sS'Palestinian Territory, Occupied'
p556
S'PS'
p557
s.