(dp1
S'Windsor and Maidenhead'
p2
S'P9'
p3
sS'Daga'
p4
S'08'
p5
sS'Saint Helena'
p6
S'02'
p7
sS'Kogi'
p8
S'41'
p9
sS'Paraiba'
p10
S'17'
p11
sS'Gazi Baba'
p12
S'32'
p13
sS'Banwa'
p14
S'46'
p15
sS'Toledo'
p16
S'06'
p17
sS'Copperbelt'
p18
g5
sS'Al Khums'
p19
S'50'
p20
sS'Liverpool'
p21
S'H8'
p22
sS'Nigde'
p23
S'73'
p24
sS'Oblesevo'
p25
g24
sS'Capiz'
p26
S'18'
p27
sS'Choluteca'
p28
g7
sS'Niamey'
p29
g5
sS'Western'
p30
g5
sS'Kao-hsiung'
p31
g7
sS'Pedernales'
p32
S'16'
p33
sS'Andalucia'
p34
S'51'
p35
sS'Valle'
p36
g11
sS'South Gloucestershire'
p37
S'M6'
p38
sS'Cambridgeshire'
p39
S'C3'
p40
sS'Araucania'
p41
S'04'
p42
sS'Primorsko-Goranska'
p43
S'12'
p44
sS'Mokhotlong'
p45
g33
sS'Loei'
p46
g27
sS'Ostfold'
p47
S'13'
p48
sS'Ulsan-gwangyoksi'
p49
S'21'
p50
sS'Ocnita'
p51
S'81'
p52
sS'Paul'
p53
S'05'
p54
sS'Binh Dinh'
p55
S'54'
p56
sS'Kamuli'
p57
S'38'
p58
sS'Ghadamis'
p59
S'56'
p60
sS'Los Rios'
p61
g48
sS'Siquijor'
p62
S'69'
p63
sS'Bender'
p64
S'62'
p65
sS'Intibuca'
p66
S'10'
p67
sS'Arizona'
p68
S'AZ'
p69
sS'Clarendon'
p70
S'01'
p71
sS'Kilimanjaro'
p72
g17
sS'Hamilton'
p73
S'03'
p74
sS'Kaokoland'
p75
g17
sS'Orasac'
p76
S'75'
p77
sS'Ajdovscina'
p78
g71
sS"Volyns'ka Oblast'"
p79
S'24'
p80
sS'Plzensky kraj'
p81
S'87'
p82
sS'Gros-Islet'
p83
g17
sS'Negotino-Polosko'
p84
S'70'
p85
sS'Wicklow'
p86
S'31'
p87
sS'Limousin'
p88
S'B1'
p89
sS'Ohio'
p90
S'OH'
p91
sS'Maradi'
p92
g42
sS'Katanga'
p93
g54
sS'Wolverhampton'
p94
S'Q3'
p95
sS'Kanem'
p96
g17
sS'Quezon City'
p97
S'F2'
p98
sS'Enga'
p99
S'19'
p100
sS'Uvs'
p101
g100
sS'Sousse'
p102
S'23'
p103
sS'Hamah'
p104
g67
sS'Quiche'
p105
S'14'
p106
sS'Doncaster'
p107
S'D5'
p108
sS'West Berkshire'
p109
S'P4'
p110
sS"Rust'avi"
p111
S'45'
p112
sS'Thyolo'
p113
g54
sS'Paysandu'
p114
S'11'
p115
sS'Newham'
p116
S'I8'
p117
sS'Samkir'
p118
g35
sS'Guanajuato'
p119
g115
sS'Alto Paraguay'
p120
g103
sS'Lubombo'
p121
g7
sS'Vukovarsko-Srijemska'
p122
g27
sS'Leiria'
p123
g48
sS'Franche-Comte'
p124
S'A6'
p125
sS'Negotino'
p126
g63
sS'Almaty City'
p127
g7
sS'Gjirokaster'
p128
g112
sS'Lisburn'
p129
S'S5'
p130
sS'Paro'
p131
g48
sS'Karonga'
p132
g5
sS'Lukovo'
p133
S'61'
p134
sS'Cayo'
p135
g7
sS'Brokopondo'
p136
g67
sS'Dac Lac'
p137
S'44'
p138
sS'Radece'
p139
S'99'
p140
sS'Oruro'
p141
g54
sS'Kralovehradecky kraj'
p142
S'82'
p143
sS'Islington'
p144
S'G3'
p145
sS'Kossi'
p146
S'58'
p147
sS'Butha-Buthe'
p148
g115
sS'Narayani'
p149
g115
sS'Pichincha'
p150
g27
sS'Comayagua'
p151
g42
sS'Buskerud'
p152
g42
sS'Al Mintaqah ash Shamaliyah'
p153
g67
sS"Ternopil's'ka Oblast'"
p154
S'22'
p155
sS'Maritime'
p156
g80
sS'Alsace'
p157
S'C1'
p158
sS'Agusan del Norte'
p159
g7
sS'Falcon'
p160
g115
sS'Anzoategui'
p161
g7
sS"T'elavis Raioni"
p162
S'52'
p163
sS'Goranboy'
p164
g50
sS'Mariy-El'
p165
g112
sS'Tagaytay'
p166
S'G2'
p167
sS'Kebbi'
p168
S'40'
p169
sS'Phangnga'
p170
g134
sS'Leicestershire'
p171
S'H5'
p172
sS'Sudur-Tingeyjarsysla'
p173
g13
sS'Glarus'
p174
g5
sS'Aland'
p175
g71
sS'Santo Domingo'
p176
S'37'
p177
sS'Saint James'
p178
g42
sS"Donets'ka Oblast'"
p179
g54
sS'Manitoba'
p180
S'MB'
p181
sS'Hoima'
p182
g87
sS'Ardabil'
p183
g13
sS'Majsperk'
p184
S'J1'
p185
sS'Wrexham'
p186
S'Z4'
p187
sS'Federation of Bosnia and Herzegovina'
p188
g71
sS'Nam Dinh'
p189
g143
sS'Bazega'
p190
S'47'
p191
sS'Botosani'
p192
S'07'
p193
sS'Tartus'
p194
g106
sS'Jizan'
p195
g11
sS'Nonthaburi'
p196
g58
sS'Rajshahi'
p197
S'83'
p198
sS'Nassarawa'
p199
g60
sS'Ogooue-Maritime'
p200
g5
sS'Smiths'
p201
S'09'
p202
sS'Vinh Long'
p203
S'77'
p204
sS'Bocas del Toro'
p205
g71
sS'Tolmin'
p206
S'D2'
p207
sS"Ts'ageris Raioni"
p208
S'57'
p209
sS'Kissidougou'
p210
g11
sS'Northern Territory'
p211
g74
sS'Seti'
p212
g106
sS'Lilongwe'
p213
g115
sS'Bheri'
p214
g7
sS'Yumbe'
p215
S'97'
p216
sS'Antsiranana'
p217
g71
sS'Biltine'
p218
g7
sS'Saint Peter Basseterre'
p219
g115
sS'Al Minya'
p220
g67
sS'Hunan'
p221
g115
sS'Corozal'
p222
g74
sS'Ar Riyad'
p223
g67
sS'Trbovlje'
p224
S'D3'
p225
sS'Borno'
p226
S'27'
p227
sS'Moheli'
p228
g74
sS'Baja Verapaz'
p229
g7
sS'Northamptonshire'
p230
g185
sS'Panevezio Apskritis'
p231
S'60'
p232
sS'Kharagaulis Raioni'
p233
g227
sS'Medimurska'
p234
g202
sS'Dubasari'
p235
S'72'
p236
sS'Smartno ob Paki'
p237
S'C6'
p238
sS'Pazardzhik'
p239
S'48'
p240
sS'Coronie'
p241
g44
sS'Lezhe'
p242
g240
sS'Bourgogne'
p243
S'A1'
p244
sS'Lakshadweep'
p245
g106
sS'Tearce'
p246
S'A5'
p247
sS'Marneulis Raioni'
p248
S'35'
p249
sS'Skofljica'
p250
g158
sS'Rotherham'
p251
S'L3'
p252
sS'Astana'
p253
g54
sS'Bouenza'
p254
g71
sS'Armed Forces Europe, Middle East, & Canada'
p255
S'AE'
p256
sS'Obwalden'
p257
g106
sS'Ghowr'
p258
g202
sS'Havering'
p259
S'F6'
p260
sS'Vieux-Fort'
p261
g67
sS'Masvingo'
p262
g5
sS'Beltinci'
p263
g7
sS'North-Western Province'
p264
g71
sS'Bayburt'
p265
g204
sS'Hau Giang'
p266
S'93'
p267
sS'Granma'
p268
g202
sS'Niger'
p269
g87
sS'Yamaguchi'
p270
g112
sS'Nordgronland'
p271
g71
sS'Pastaza'
p272
g11
sS'Chihuahua'
p273
g17
sS'Wallonia'
p274
g106
sS'Tobago'
p275
g115
sS'Khonis Raioni'
p276
S'30'
p277
sS'Ntchisi'
p278
S'20'
p279
sS'Odranci'
p280
S'86'
p281
sS"Poltavs'ka Oblast'"
p282
g27
sS'Braganca'
p283
g54
sS'North Somerset'
p284
S'J4'
p285
sS'Mubarak al Kabir'
p286
g202
sS'Bani Suwayf'
p287
g27
sS'Phrae'
p288
g193
sS'Planken'
p289
g54
sS'Saint Elizabeth'
p290
g115
sS'Canindeyu'
p291
g100
sS'Anse-la-Raye'
p292
g71
sS'Kirikkale'
p293
S'79'
p294
sS'Croydon'
p295
S'C8'
p296
sS'Al Muthanna'
p297
g74
sS'Volgograd'
p298
S'84'
p299
sS'Somogy'
p300
g11
sS'Likoma'
p301
g227
sS'Fatick'
p302
g202
sS'Haryana'
p303
g67
sS'San Salvador'
p304
g67
sS'Qax'
p305
S'39'
p306
sS'Sulawesi Selatan'
p307
g58
sS'Zagorje ob Savi'
p308
S'E7'
p309
sS'Cegrane'
p310
g33
sS'Lincolnshire'
p311
S'H7'
p312
sS'Pehcevo'
p313
S'78'
p314
sS'Roscommon'
p315
g80
sS'Devon'
p316
S'D4'
p317
sS'Shemgang'
p318
g27
sS"Governor's Harbour"
p319
g227
sS'Pegu'
p320
g202
sS'Shan State'
p321
g115
sS'Sanmatenga'
p322
g85
sS'Tamanghasset'
p323
S'53'
p324
sS'Haute-Kotto'
p325
g74
sS"Kyyivs'ka Oblast'"
p326
g48
sS'Nova Scotia'
p327
S'NS'
p328
sS'Gujarat'
p329
g202
sS'Mondulkiri'
p330
g67
sS'Alabama'
p331
S'AL'
p332
sS'Atlanyique'
p333
g202
sS"Geghark'unik'"
p334
g42
sS'Saint George'
p335
g74
sS'Kingston'
p336
g11
sS'Skocjan'
p337
S'B8'
p338
sS'Parvan'
p339
g169
sS'Selangor'
p340
g44
sS'Lisboa'
p341
g106
sS'Lahij'
p342
g80
sS'Attiki'
p343
g249
sS'Nyiregyhaza'
p344
S'33'
p345
sS'Aiga-i-le-Tai'
p346
g7
sS'Dambovita'
p347
g33
sS'Bistrita-Nasaud'
p348
g17
sS'Dajabon'
p349
g42
sS'Kwangju-jikhalsi'
p350
g27
sS'Pembroke'
p351
g54
sS'Aomori'
p352
g74
sS'Snafellsnes- og Hnappadalssysla'
p353
S'29'
p354
sS'Martvilis Raioni'
p355
S'36'
p356
sS'Konopiste'
p357
S'49'
p358
sS'Ad Daqahliyah'
p359
g71
sS'YeDebub Biheroch Bihereseboch na Hizboch'
p360
g56
sS'Jalisco'
p361
g106
sS'Bexley'
p362
g125
sS'Oueme'
p363
g33
sS'Mayaro'
p364
g74
sS'Hessen'
p365
g54
sS'Bordj Bou Arreridj'
p366
g306
sS'Washington'
p367
S'WA'
p368
sS'Al Fatih'
p369
g240
sS'Durham'
p370
S'D8'
p371
sS'Lampang'
p372
g17
sS'Ucar'
p373
S'59'
p374
sS'Tokushima'
p375
g306
sS'Nong Bua Lamphu'
p376
g294
sS"Sums'ka Oblast'"
p377
g50
sS'Mestiis Raioni'
p378
g177
sS'Kyonggi-do'
p379
g48
sS'Badakhshan'
p380
g71
sS'Sirdaryo'
p381
g115
sS'Kalimantan Tengah'
p382
g48
sS'Al Janubiyah'
p383
g11
sS'Szombathely'
p384
g177
sS'Kouroussa'
p385
g100
sS'Dadra and Nagar Haveli'
p386
g17
sS'Louang Namtha'
p387
g54
sS'Kingston upon Thames'
p388
S'G7'
p389
sS'Rhondda Cynon Taff'
p390
S'Y9'
p391
sS'Central'
p392
g71
sS'River Cess'
p393
g27
sS'Bitola'
p394
g17
sS'Sylhet'
p395
g281
sS'Dornod'
p396
g17
sS'Sanchez Ramirez'
p397
g50
sS'St. Helens'
p398
S'N1'
p399
sS'Temotu'
p400
g202
sS'Brunei and Muara'
p401
g202
sS'Kyenjojo'
p402
S'85'
p403
sS'Busia'
p404
S'67'
p405
sS'Mulanje'
p406
g354
sS'Strumica'
p407
g244
sS'Tungurahua'
p408
g100
sS'Telford and Wrekin'
p409
S'O2'
p410
sS'Davao'
p411
g80
sS'New South Wales'
p412
g7
sS"Khmel'nyts'ka Oblast'"
p413
g202
sS'Chelyabinsk'
p414
g48
sS'Vilniaus Apskritis'
p415
S'65'
p416
sS'Aqtobe'
p417
g42
sS'Balkh'
p418
g277
sS'Lorraine'
p419
S'B2'
p420
sS'Cesu'
p421
g54
sS'Zlitan'
p422
g112
sS'Asyut'
p423
g11
sS'North Kazakhstan'
p424
g33
sS'Armavir'
p425
g74
sS'Borgo Maggiore'
p426
g17
sS'Valmieras'
p427
g87
sS'Orange Walk'
p428
g42
sS'Moscow City'
p429
g240
sS'Cagayan'
p430
g106
sS'Georgia'
p431
S'GA'
p432
sS'Kefallinia'
p433
g227
sS'Austur-Skaftafellssysla'
p434
g17
sS'Tokyo'
p435
g169
sS'Nakhon Nayok'
p436
S'43'
p437
sS'Canlaon'
p438
S'B5'
p439
sS'Pieria'
p440
g33
sS'Chaouia-Ouardigha'
p441
g20
sS'Song Be'
p442
g358
sS'Edirne'
p443
g155
sS'Jilin'
p444
g54
sS'Crensovci'
p445
S'15'
p446
sS'Santarem'
p447
g27
sS'Nan'
p448
g42
sS'Jawa Timur'
p449
g5
sS'Satu Mare'
p450
g13
sS'Neuquen'
p451
g446
sS'Cankuzo'
p452
g115
sS'Jonkopings Lan'
p453
g5
sS'Roxas'
p454
S'F3'
p455
sS'Laoag'
p456
g225
sS'Cankiri'
p457
g143
sS'Limburg'
p458
g54
sS'Zilina'
p459
g5
sS'An Giang'
p460
g437
sS'Budapest'
p461
g54
sS'Sool'
p462
g155
sS'Muramvya'
p463
g155
sS'Angeles'
p464
g244
sS'Uva'
p465
g249
sS'Va'
p466
g17
sS'Dobrusevo'
p467
S'26'
p468
sS'Komarom-Esztergom'
p469
g44
sS'Ben Arous'
p470
g227
sS'Milne Bay'
p471
g74
sS'Trebnje'
p472
g317
sS'Mehedinti'
p473
g468
sS'Boulkiemde'
p474
g100
sS'Al Iskandariyah'
p475
g17
sS'Masaya'
p476
g115
sS'Gadabay'
p477
g100
sS'Dol pri Ljubljani'
p478
g155
sS'La Carlota'
p479
g207
sS'Carmarthenshire'
p480
S'X7'
p481
sS'Baghdad'
p482
g193
sS'Nord-Est'
p483
g67
sS'Gotlands Lan'
p484
g54
sS'Noord-Brabant'
p485
g17
sS'Tacuarembo'
p486
g27
sS'Caldas'
p487
g177
sS'Dubrovacko-Neretvanska'
p488
g74
sS'Bel Air'
p489
g202
sS'Samut Prakan'
p490
S'42'
p491
sS'Missouri'
p492
S'MO'
p493
sS'Qostanay'
p494
g48
sS'Dolnoslaskie'
p495
g236
sS'Berat'
p496
g169
sS'Bais'
p497
g247
sS'Schleswig-Holstein'
p498
g67
sS'Kankan'
p499
g13
sS'Pesnica'
p500
S'89'
p501
sS'Oromiya'
p502
g35
sS'San Marcos'
p503
g11
sS'Hovedstaden'
p504
g11
sS'Gharb-Chrarda-Beni Hssen'
p505
g163
sS'Balvu'
p506
g74
sS'Michoacan de Ocampo'
p507
g33
sS'Pinar del Rio'
p508
g71
sS'Kronobergs Lan'
p509
g44
sS'Concepcion'
p510
g193
sS'El Kef'
p511
g106
sS'Silistra'
p512
S'55'
p513
sS'Lofa'
p514
g279
sS'Ustecky kraj'
p515
g501
sS'Port-of-Spain'
p516
g54
sS'Harrow'
p517
S'F4'
p518
sS'Alajuela'
p519
g71
sS'Negros Occidental'
p520
S'H3'
p521
sS'Dagupan'
p522
S'B9'
p523
sS'Azuay'
p524
g7
sS"Vinnyts'ka Oblast'"
p525
g103
sS'Bogdanci'
p526
g5
sS'Tripura'
p527
g468
sS'Niigata'
p528
g354
sS'Guangxi'
p529
g33
sS'Guelma'
p530
g103
sS'Cajamarca'
p531
g17
sS'Pardubicky kraj'
p532
g281
sS'North Yorkshire'
p533
S'J7'
p534
sS"Saint George's"
p535
g193
sS'KwaZulu-Natal'
p536
g7
sS'Nuevo Leon'
p537
g100
sS'Isabela'
p538
g87
sS'Kayanza'
p539
g446
sS'Gingoog'
p540
S'C7'
p541
sS'Vlaams-Brabant'
p542
g44
sS'Qusar'
p543
g138
sS"Al Bayda'"
p544
g279
sS'Ausser-Rhoden'
p545
g7
sS'Nusa Tenggara Barat'
p546
g11
sS'Moka'
p547
g446
sS'Gornji Grad'
p548
g277
sS'Nagano'
p549
g468
sS'Sandwell'
p550
S'L7'
p551
sS'Pulau Pinang'
p552
g202
sS'Rutana'
p553
g279
sS'Sveti Jurij'
p554
S'D1'
p555
sS'Boyaca'
p556
g356
sS'Yaren'
p557
g106
sS'Bay of Plenty'
p558
S'E8'
p559
sS'Khorasan-e Shemali'
p560
g437
sS'Aiwo'
p561
g71
sS'Skikda'
p562
g87
sS'Annobon'
p563
g74
sS'Kukurecani'
p564
g60
sS'Zoundweogo'
p565
g138
sS'Ogres'
p566
g50
sS'Prachuap Khiri Khan'
p567
g209
sS'Karlovacka'
p568
g54
sS'Ormoz'
p569
g82
sS'Maputo'
p570
g42
sS'Napo'
p571
g103
sS'Sveti Nikole'
p572
S'A4'
p573
sS'Masbate'
p574
g306
sS'Gaza'
p575
g7
sS'Ashanti'
p576
g7
sS'Laanemaa'
p577
g193
sS'Inchiri'
p578
g44
sS'Rock Sound'
p579
g345
sS'Ballymoney'
p580
S'R1'
p581
sS'Bimini'
p582
g54
sS'Kondovo'
p583
g240
sS'Ceara'
p584
g17
sS'Soroti'
p585
S'95'
p586
sS'Paget'
p587
g42
sS'Meneng'
p588
g115
sS'Troms'
p589
g27
sS'Macenta'
p590
g50
sS'Belait'
p591
g5
sS'Ealing'
p592
S'D9'
p593
sS'Isle of Anglesey'
p594
S'X1'
p595
sS'Binh Thuan'
p596
g513
sS'Smolyan'
p597
g209
sS'Exuma'
p598
g67
sS'Dzepciste'
p599
g87
sS"Chiat'ura"
p600
g106
sS'Tanga'
p601
g27
sS'Brezovica'
p602
g202
sS'Guaira'
p603
g67
sS'Szeged'
p604
g100
sS'Hunedoara'
p605
g50
sS'Nueva Vizcaya'
p606
g240
sS'Indiana'
p607
S'IN'
p608
sS'Al Fayyum'
p609
g42
sS'Louisiana'
p610
S'LA'
p611
sS'Limavady'
p612
S'S4'
p613
sS'Al Basrah'
p614
g7
sS'Western Highlands'
p615
g33
sS'Surin'
p616
g354
sS'Kangwon-do'
p617
g202
sS'Balakan'
p618
g67
sS'Nisporeni'
p619
S'80'
p620
sS'Moroto'
p621
S'88'
p622
sS'Qvarlis Raioni'
p623
g138
sS'Solihull'
p624
S'M2'
p625
sS'Suphan Buri'
p626
g35
sS'Mzimba'
p627
g446
sS'Sironko'
p628
S'94'
p629
sS'Oost-Vlaanderen'
p630
g5
sS'Ratnapura'
p631
g279
sS'Kyongsang-namdo'
p632
g279
sS'Taranaki'
p633
S'F9'
p634
sS'Puerto Plata'
p635
g27
sS'Darnah'
p636
g513
sS'Santa Barbara'
p637
g33
sS'Tak'
p638
g5
sS'Basse-Kotto'
p639
g7
sS'Bujumbura'
p640
g7
sS'Vallee du Bandama'
p641
S'90'
p642
sS'Waikato'
p643
S'G1'
p644
sS'Ha Giang'
p645
g147
sS'Chontales'
p646
g42
sS'Midlothian'
p647
S'V5'
p648
sS'Kamnik'
p649
S'H6'
p650
sS'Arges'
p651
g74
sS"Shamal Sina'"
p652
g227
sS'Ribnica'
p653
S'L1'
p654
sS'Cundinamarca'
p655
g345
sS'Chiapas'
p656
g54
sS'Kocani'
p657
g15
sS"Inch'on-jikhalsi"
p658
g44
sS'Amapa'
p659
g74
sS'Boqueron'
p660
g74
sS'Tabasco'
p661
g227
sS'Maha Sarakham'
p662
g80
sS'Baja California Sur'
p663
g74
sS'Dagestan'
p664
g11
sS'Zangilan'
p665
g63
sS'Ninh Thuan'
p666
S'68'
p667
sS'Trafford'
p668
S'O6'
p669
sS'Flacq'
p670
g48
sS'Saint Thomas Middle Island'
p671
g48
sS'Andorra la Vella'
p672
g193
sS'Zambales'
p673
S'64'
p674
sS'Gampaha'
p675
g80
sS'Rogaska Slatina'
p676
S'A7'
p677
sS'Lanao del Sur'
p678
g249
sS'Andaman and Nicobar Islands'
p679
g71
sS'Mashonaland Central'
p680
g74
sS'Alberta'
p681
S'AB'
p682
sS'Kratovo'
p683
g35
sS'Davao Oriental'
p684
g468
sS'Bath and North East Somerset'
p685
g573
sS'Bayanhongor'
p686
g7
sS'Meemu'
p687
g9
sS'Kegalla'
p688
g115
sS'Lerik'
p689
g87
sS'Mingacevir'
p690
g345
sS'Faranah'
p691
g202
sS'Nakasongola'
p692
g24
sS'Saga'
p693
g345
sS'Sulawesi Utara'
p694
g87
sS"L'vivs'ka Oblast'"
p695
g446
sS'Caaguazu'
p696
g42
sS'Castelo Branco'
p697
g17
sS'Osjecko-Baranjska'
p698
g67
sS'Stoke-on-Trent'
p699
S'N4'
p700
sS'Lao Cai'
p701
g642
sS'Tameside'
p702
S'O1'
p703
sS'El Bayadh'
p704
g491
sS'Region Metropolitana'
p705
g44
sS'Zletovo'
p706
S'C5'
p707
sS'Dobrich'
p708
g169
sS'Shiga'
p709
g249
sS'Ilhas'
p710
g71
sS'Sumale'
p711
g163
sS'Alger'
p712
g71
sS'Arkadhia'
p713
g9
sS'Alagoas'
p714
g7
sS'Prey Veng'
p715
g106
sS'Neftcala'
p716
g356
sS'Lazio'
p717
g193
sS'Al Mahrah'
p718
g74
sS'Jawa Barat'
p719
g277
sS'Kicevo'
p720
g437
sS'Quirino'
p721
g667
sS'Samsun'
p722
g513
sS'Jutiapa'
p723
g115
sS'Sicilia'
p724
g446
sS'Yala'
p725
g85
sS'Kastamonu'
p726
g177
sS'Nakhon Si Thammarat'
p727
g674
sS'Makamba'
p728
g11
sS'Magadan'
p729
g138
sS'Esmeraldas'
p730
g202
sS'Jihomoravsky kraj'
p731
g314
sS'Shandong'
p732
S'25'
p733
sS'Bio-Bio'
p734
g17
sS'Edo'
p735
g177
sS'Ouargla'
p736
g20
sS'Isabel'
p737
g193
sS'Fukushima'
p738
g5
sS'Manica'
p739
g67
sS'Moyen-Chari'
p740
g115
sS'Mississippi'
p741
S'MS'
p742
sS'Peterborough'
p743
S'K3'
p744
sS'Artvin'
p745
g5
sS'Wyoming'
p746
S'WY'
p747
sS'Barnet'
p748
S'A2'
p749
sS'Puerto Princesa'
p750
S'F1'
p751
sS'Sjelland'
p752
g279
sS'Erzincan'
p753
g80
sS'Kranj'
p754
g163
sS'Guatemala'
p755
g193
sS'Hoa Binh'
p756
g134
sS'Tawitawi'
p757
g236
sS'Saravan'
p758
g202
sS'Kamchatka'
p759
g468
sS'Hareri Hizb'
p760
g20
sS'Sofala'
p761
g54
sS'Kemo'
p762
g17
sS'Domagnano'
p763
g74
sS'Ghanzi'
p764
g74
sS'Lankaran'
p765
g354
sS'Kuzma'
p766
S'I2'
p767
sS'Grenadines'
p768
g17
sS'Thurrock'
p769
S'O3'
p770
sS'Picardie'
p771
S'B6'
p772
sS'Evenk'
p773
g27
sS'Grand Bassa'
p774
g115
sS'Malatya'
p775
g138
sS'South Cotabato'
p776
g85
sS'Delcevo'
p777
g155
sS'Lamphun'
p778
g54
sS'Kosice'
p779
g74
sS'Craigavon'
p780
S'R8'
p781
sS'Shepherd'
p782
g106
sS'Toscana'
p783
g33
sS'Castilla-La Mancha'
p784
g56
sS'Kaposvar'
p785
g277
sS'Michigan'
p786
S'MI'
p787
sS'Grootfontein'
p788
g54
sS'Saida'
p789
g67
sS'Noumbiel'
p790
g405
sS'Sodermanlands Lan'
p791
g27
sS'Omsk'
p792
g56
sS"Hawke's Bay"
p793
g98
sS'Mongar'
p794
g44
sS'Yafran'
p795
g65
sS'Green Turtle Cay'
p796
S'28'
p797
sS'Khashuris Raioni'
p798
g797
sS'Basarabeasca'
p799
g134
sS'Faetano'
p800
g42
sS'Niassa'
p801
g193
sS'Hyogo'
p802
g48
sS'San Cristobal'
p803
g345
sS'Maharashtra'
p804
g33
sS'Port Glaud'
p805
g50
sS'Equateur'
p806
g7
sS'South Tyneside'
p807
S'M7'
p808
sS'Tirol'
p809
g193
sS'District of Columbia'
p810
S'DC'
p811
sS'Baki'
p812
g202
sS'Causeni'
p813
g405
sS'Ontario'
p814
S'ON'
p815
sS'Aberdeenshire'
p816
S'T6'
p817
sS'Amur'
p818
g54
sS'Yap'
p819
g42
sS'Warwickshire'
p820
S'P3'
p821
sS'Ljubno'
p822
g65
sS'Balti'
p823
g232
sS'Skofja Loka'
p824
g523
sS'Cavite'
p825
g279
sS'Baalbek-Hermel'
p826
g115
sS'San Carlos'
p827
g518
sS'Miyagi'
p828
g80
sS'Dipolog'
p829
S'C4'
p830
sS'Kunene'
p831
g13
sS'Woleu-Ntem'
p832
g202
sS'Strabane'
p833
S'T4'
p834
sS'Saratov'
p835
g405
sS'Adamaoua'
p836
g67
sS'River Gee'
p837
g155
sS'Pemba North'
p838
g48
sS'Saint Anne Sandy Point'
p839
g7
sS'Kurgan'
p840
g169
sS'Kuklis'
p841
g513
sS'Caloocan'
p842
S'B4'
p843
sS'Osmaniye'
p844
S'91'
p845
sS'Quang Nam'
p846
g299
sS'Woqooyi Galbeed'
p847
g279
sS'Zonguldak'
p848
g403
sS'Chirang'
p849
g193
sS'Malanje'
p850
g44
sS'Agri'
p851
g42
sS'Tacna'
p852
g103
sS'Kwara'
p853
g277
sS'Krung Thep'
p854
g169
sS'Escaldes-Engordany'
p855
g5
sS'Saint Mary Cayon'
p856
g5
sS'Chaco'
p857
g74
sS'Monte Giardino'
p858
g5
sS'Stung Treng'
p859
g11
sS'Ogooue-Lolo'
p860
g193
sS'Evritania'
p861
g277
sS'Mato Grosso do Sul'
p862
g115
sS'Vorumaa'
p863
g50
sS'Koubia'
p864
g345
sS'Idaho'
p865
S'ID'
p866
sS'Veliko Turnovo'
p867
g65
sS'Upper Takutu-Upper Essequibo'
p868
g100
sS'Ilocos Norte'
p869
g797
sS'Vichada'
p870
g87
sS'Aizkraukles'
p871
g71
sS'Limassol'
p872
g54
sS'Brodsko-Posavska'
p873
g7
sS'Kabardin-Balkar'
p874
g155
sS'Nueva Ecija'
p875
g191
sS'Iowa'
p876
S'IA'
p877
sS'Tutong'
p878
g446
sS'Metlika'
p879
g24
sS'Schaan'
p880
g193
sS'Rangarvallasysla'
p881
g103
sS'Portuguesa'
p882
g27
sS'Cuando Cubango'
p883
g42
sS'Suffolk'
p884
S'N5'
p885
sS'Saint Philip'
p886
g5
sS'Zrnovci'
p887
g238
sS'Samut Sakhon'
p888
g513
sS'Blackburn with Darwen'
p889
S'A8'
p890
sS"T'et'ritsqaros Raioni"
p891
g56
sS'Laamu'
p892
g54
sS'Santander'
p893
g468
sS'Yagha'
p894
g77
sS'Agalega Islands'
p895
g50
sS'Adiyaman'
p896
g7
sS'Pampanga'
p897
g20
sS'Kent'
p898
S'G5'
p899
sS'East Sepik'
p900
g115
sS'Rio Negro'
p901
g33
sS'Guanacaste'
p902
g74
sS'Katsina'
p903
g80
sS'Splitsko-Dalmatinska'
p904
g446
sS'Khatlon'
p905
g7
sS'Flores'
p906
g17
sS'Al Asimah'
p907
g33
sS'Al Jahra'
p908
g54
sS'Aitolia kai Akarnania'
p909
g87
sS'Beijing'
p910
g155
sS'Cesinovo'
p911
g100
sS'North Western'
p912
g13
sS'Zamora-Chinchipe'
p913
g279
sS'Voronezh'
p914
g281
sS'Masalli'
p915
g13
sS'Rehoboth'
p916
g33
sS'Jawa Tengah'
p917
g193
sS'Gharyan'
p918
g209
sS'Brabant Wallon'
p919
g67
sS'Margibi'
p920
g11
sS'Trzic'
p921
g108
sS'Minas Gerais'
p922
g446
sS'Nordland'
p923
g202
sS'Manchester'
p924
g767
sS'Karelia'
p925
g797
sS'Eilean Siar'
p926
S'W8'
p927
sS'Cat Island'
p928
g17
sS'Anse Louis'
p929
g42
sS'Benguet'
p930
g67
sS'San Martin'
p931
g155
sS'Sostanj'
p932
g541
sS'Smolensk'
p933
g63
sS'Hebei'
p934
g67
sS'Pecs'
p935
g446
sS'Apurimac'
p936
g74
sS'Batdambang'
p937
g354
sS'Asir Province'
p938
g115
sS'Nangarhar'
p939
g27
sS'Jendouba'
p940
g17
sS'Jurmala'
p941
g48
sS'Tombali'
p942
g193
sS'Gevgelija'
p943
g345
sS'Huehuetenango'
p944
g5
sS'Mariental'
p945
g468
sS'Sa Kaeo'
p946
g620
sS'Oppland'
p947
g115
sS'Brasov'
p948
g202
sS'Kano'
p949
g354
sS"Ozurget'is Raioni"
p950
g9
sS'Calilabad'
p951
g446
sS'Cabanatuan'
p952
S'A9'
p953
sS'Gedo'
p954
g17
sS'Gorno-Altay'
p955
g74
sS'Konya'
p956
S'71'
p957
sS'Hodmezovasarhely'
p958
g354
sS'Liguria'
p959
g5
sS'Ozamis'
p960
S'E6'
p961
sS'Togdheer'
p962
g100
sS'Gansu'
p963
g446
sS'Qashqadaryo'
p964
g5
sS'Surt'
p965
g232
sS'Amara'
p966
g15
sS'Fria'
p967
g115
sS'Shetland Islands'
p968
S'W3'
p969
sS'Tukuma'
p970
g354
sS'Saint Louis'
p971
g155
sS'Krapinsko-Zagorska'
p972
g193
sS'Sharjah'
p973
g17
sS'Bajah'
p974
g11
sS'Chita'
p975
g106
sS'Hai Duong'
p976
g294
sS'Tororo'
p977
S'76'
p978
sS'Batha'
p979
g71
sS'Moravske Toplice'
p980
g314
sS'San Luis'
p981
g100
sS'Saint Joseph'
p982
g17
sS'Canakkale'
p983
g11
sS'Ostgronland'
p984
g7
sS'Batanes'
p985
g5
sS'La Habana'
p986
g115
sS'Trincomalee'
p987
g50
sS'Khaskovo'
p988
g437
sS'Grevenmacher'
p989
g7
sS'Montevideo'
p990
g67
sS"Ul'yanovsk"
p991
g52
sS'Qazax'
p992
g169
sS'Beyla'
p993
g71
sS'New Hampshire'
p994
S'NH'
p995
sS'Pleven'
p996
g20
sS'Ziri'
p997
g98
sS'Caska'
p998
g446
sS'Ziro'
p999
g204
sS'Kourweogo'
p1000
g232
sS'La Libertad'
p1001
g54
sS'Morogoro'
p1002
g67
sS'Chandigarh'
p1003
g54
sS'Vratnica'
p1004
g338
sS'Atyrau'
p1005
g17
sS'Kalbacar'
p1006
g468
sS'Kouilou'
p1007
g42
sS"Kirovohrads'ka Oblast'"
p1008
g67
sS'La Union'
p1009
g193
sS'Acklins and Crooked Islands'
p1010
g80
sS'Gyor-Moson-Sopron'
p1011
g202
sS'Pathum Thani'
p1012
g306
sS'Namibe'
p1013
g48
sS'Pagadian'
p1014
g309
sS'Laghouat'
p1015
g733
sS'Escuintla'
p1016
g17
sS'Spot Bay'
p1017
g54
sS'Taraclia'
p1018
g642
sS'Sao Tome'
p1019
g7
sS'Madeira'
p1020
g67
sS'Trelawny'
p1021
g446
sS'Viseu'
p1022
g155
sS'Kumanovo'
p1023
g209
sS'Sao Domingos'
p1024
g11
sS'East Dunbartonshire'
p1025
S'U5'
p1026
sS'Guantanamo'
p1027
g67
sS'Delaware'
p1028
S'DE'
p1029
sS'Mono'
p1030
g446
sS"T'ai-wan"
p1031
g42
sS'Harbour Island'
p1032
g155
sS'Loska Dolina'
p1033
S'I7'
p1034
sS'Sidi Bou Zid'
p1035
g345
sS'Phayao'
p1036
g9
sS'Sulawesi Tenggara'
p1037
g155
sS'Anjouan'
p1038
g71
sS'Nebbi'
p1039
g147
sS'Sud-Est'
p1040
g48
sS'Marlborough'
p1041
g518
sS'Marrakech-Tensift-Al Haouz'
p1042
g191
sS'Cantemir'
p1043
g416
sS'Burdur'
p1044
g446
sS'Herat'
p1045
g115
sS'Rio Grande do Norte'
p1046
g155
sS'Castilla y Leon'
p1047
g513
sS'Punjab'
p1048
g103
sS'Mures'
p1049
g227
sS'Apac'
p1050
g468
sS'Qabala'
p1051
g58
sS'Swansea'
p1052
S'Z1'
p1053
sS'Zlinsky kraj'
p1054
g642
sS'Bihar'
p1055
S'34'
p1056
sS'Maramures'
p1057
g733
sS'Hainan'
p1058
g87
sS'Bacolod'
p1059
g749
sS'Baranya'
p1060
g7
sS'Coyah'
p1061
g277
sS'Saint John Capisterre'
p1062
g17
sS'Louth'
p1063
g100
sS'Kaspis Raioni'
p1064
g468
sS'Sonora'
p1065
g468
sS'Penza'
p1066
g209
sS'Boa Vista'
p1067
g71
sS'Bengkulu'
p1068
g74
sS'Monrovia'
p1069
g193
sS'Puttalam'
p1070
g100
sS'Enugu'
p1071
g191
sS'Jigawa'
p1072
g306
sS'Liban-Sud'
p1073
g17
sS'Jalal-Abad'
p1074
g74
sS'Mintaqat Juzur Hawar'
p1075
g202
sS'Sulawesi Barat'
p1076
g9
sS'Southern Finland'
p1077
g48
sS'Ovorhangay'
p1078
g446
sS'Ombella-Mpoko'
p1079
g11
sS'Antofagasta'
p1080
g74
sS'Kaduna'
p1081
g103
sS'East Kazakhstan'
p1082
g446
sS'Atua'
p1083
g74
sS'Yanggang-do'
p1084
g48
sS'Redcar and Cleveland'
p1085
S'K9'
p1086
sS'Chinandega'
p1087
g74
sS"Sach'kheris Raioni"
p1088
g15
sS'Bishkek'
p1089
g71
sS'Buckinghamshire'
p1090
g523
sS'Kadiogo'
p1091
g324
sS'Satupa'
p1092
g202
sS"T'bilisi"
p1093
g35
sS'Viroviticko-Podravska'
p1094
g11
sS'Pays de la Loire'
p1095
g439
sS'Canterbury'
p1096
S'E9'
p1097
sS'Derbyshire'
p1098
g225
sS'Udmurt'
p1099
g620
sS'Gorenja Vas-Poljane'
p1100
g227
sS'Piemonte'
p1101
g44
sS'Aragatsotn'
p1102
g71
sS'Radovis'
p1103
g299
sS'Inner-Rhoden'
p1104
g67
sS'Casanare'
p1105
g13
sS'Berea'
p1106
g67
sS'Kaliningrad'
p1107
g103
sS'Morelos'
p1108
g11
sS'Xiangkhoang'
p1109
g106
sS'Lagodekhis Raioni'
p1110
g13
sS'Tochigi'
p1111
g58
sS'Bayqonyr'
p1112
g5
sS'Braga'
p1113
g42
sS'Mpumalanga'
p1114
g193
sS'Sarawak'
p1115
g115
sS'Al Muharraq'
p1116
g446
sS'Perth and Kinross'
p1117
S'W1'
p1118
sS'Zamfara'
p1119
g209
sS'Auvergne'
p1120
S'98'
p1121
sS'Zacapa'
p1122
g155
sS'Uttar Pradesh'
p1123
g356
sS'Ajdabiya'
p1124
g191
sS'Vaduz'
p1125
g115
sS'Tadjoura'
p1126
g54
sS'Diffa'
p1127
g7
sS'Nidwalden'
p1128
g48
sS'Kildare'
p1129
g44
sS'Susa'
p1130
g513
sS'Kamchatskiy Kray'
p1131
S'92'
p1132
sS'Thaba-Tseka'
p1133
g100
sS'Bechar'
p1134
g58
sS'Orhon'
p1135
g733
sS'Nueva Segovia'
p1136
g48
sS'Swindon'
p1137
S'N9'
p1138
sS'Tuyen Quang'
p1139
g978
sS'Van'
p1140
g416
sS'Cuvette'
p1141
g48
sS"Al Istiwa'iyah"
p1142
g797
sS'Plateau'
p1143
g358
sS'Nyanga'
p1144
g54
sS'Vas'
p1145
g155
sS'East Azarbaijan'
p1146
g345
sS'Praia'
p1147
g106
sS'Tartar'
p1148
g209
sS'Nippes'
p1149
g446
sS'Hubei'
p1150
g44
sS'Central Equatoria State'
p1151
g138
sS'Tsqaltubo'
p1152
g232
sS'Basilan'
p1153
g155
sS'Kecskemet'
p1154
g87
sS'Assaba'
p1155
g74
sS'Heredia'
p1156
g42
sS'Osilnica'
p1157
g622
sS'Omaheke'
p1158
g249
sS'Mahaica-Berbice'
p1159
g446
sS'Bamako'
p1160
g71
sS'Anse Boileau'
p1161
g7
sS'Pangasinan'
p1162
g35
sS'Sivas'
p1163
g147
sS'Caprivi'
p1164
g797
sS'Orenburg'
p1165
g513
sS'Keetmanshoop'
p1166
g5
sS'Lipetsk'
p1167
g437
sS"Libertador General Bernardo O'Higgins"
p1168
g5
sS'Debar'
p1169
g50
sS'Struga'
p1170
g140
sS'Podares'
p1171
g52
sS'Bayan-Olgiy'
p1172
g74
sS'Schwyz'
p1173
g11
sS'Saint Catherine'
p1174
g67
sS'Gabes'
p1175
g354
sS'Pentecote'
p1176
g44
sS'Salzburg'
p1177
g54
sS'Samux'
p1178
g163
sS'Telenesti'
p1179
g845
sS'Ash Shamaliyah'
p1180
g27
sS'Umm Salal'
p1181
g202
sS'Rondonia'
p1182
g80
sS'Gifu'
p1183
g202
sS'Silay'
p1184
S'F8'
p1185
sS'La Vega'
p1186
g277
sS'Qoraqalpoghiston'
p1187
g202
sS'Tien Giang'
p1188
g177
sS'Dinguiraye'
p1189
g193
sS'Zurich'
p1190
g733
sS'Clare'
p1191
g74
sS'Kyrenia'
p1192
g7
sS'Shizuoka'
p1193
g177
sS'Norourland Eystra'
p1194
g169
sS'Mbeya'
p1195
g202
sS'Chlef'
p1196
g9
sS'Kirov'
p1197
g345
sS'Dong Thap'
p1198
g202
sS'Yogyakarta'
p1199
g67
sS'Dolneni'
p1200
g797
sS'Canar'
p1201
g42
sS'Balkan'
p1202
g7
sS'Cork'
p1203
g42
sS'Barinas'
p1204
g54
sS'Imisli'
p1205
g80
sS'Souk Ahras'
p1206
g163
sS'Komondjari'
p1207
g60
sS'Auckland'
p1208
g309
sS'Eyjafjardarsysla'
p1209
g202
sS'Fianarantsoa'
p1210
g7
sS'Ziguinchor'
p1211
g44
sS'Khakass'
p1212
g87
sS'Naryn'
p1213
g42
sS'Xaignabouri'
p1214
g48
sS'Kagawa'
p1215
g11
sS'Wien'
p1216
g202
sS'Nord-Kivu'
p1217
g115
sS'Segou'
p1218
g54
sS'Bekescsaba'
p1219
g468
sS'Kumi'
p1220
g15
sS'Polonnaruwa'
p1221
g27
sS'Warminsko-Mazurskie'
p1222
g403
sS'Timis'
p1223
g356
sS'Atacama'
p1224
g54
sS'Covasna'
p1225
g446
sS'Kuhistoni Badakhshon'
p1226
g71
sS'Norte de Santander'
p1227
g50
sS'Cagayan de Oro'
p1228
g420
sS'Kasungu'
p1229
g202
sS'Hanover'
p1230
g7
sS"Brestskaya Voblasts'"
p1231
g71
sS'Tacloban'
p1232
g644
sS'Nebraska'
p1233
S'NE'
p1234
sS'Celje'
p1235
g115
sS'Borgou'
p1236
g67
sS'Calderdale'
p1237
S'C2'
p1238
sS'Champagne-Ardenne'
p1239
g573
sS'Nordjylland'
p1240
g100
sS'Bandundu'
p1241
g71
sS'Lampung'
p1242
g446
sS'Zardab'
p1243
g957
sS'Plasnica'
p1244
g620
sS'Texas'
p1245
S'TX'
p1246
sS'Durres'
p1247
g491
sS'Misamis Oriental'
p1248
g437
sS'Mwaro'
p1249
g103
sS'Bangui'
p1250
g27
sS'Southern Highlands'
p1251
g54
sS'Leitrim'
p1252
g106
sS'Abseron'
p1253
g71
sS'Banghazi'
p1254
g56
sS'East Ayrshire'
p1255
S'U4'
p1256
sS'El Oro'
p1257
g5
sS'Gandaki'
p1258
g42
sS'El Progreso'
p1259
g54
sS'Hims'
p1260
g115
sS'Bay'
p1261
g42
sS'Demir Hisar'
p1262
g80
sS'Al Anbar'
p1263
g71
sS'Bac'
p1264
g7
sS'Iriga'
p1265
g555
sS'Bam'
p1266
g446
sS'Distrito Especial'
p1267
g1056
sS'Cuanza Norte'
p1268
g54
sS'Lacs'
p1269
g52
sS'New Ireland'
p1270
g446
sS'Ali Bayramli'
p1271
g193
sS"Mykolayivs'ka Oblast'"
p1272
g33
sS'Ohrid'
p1273
S'74'
p1274
sS'Daykondi'
p1275
g9
sS'Makira'
p1276
g5
sS'Oldham'
p1277
S'K1'
p1278
sS'Waterford'
p1279
g227
sS'Halton'
p1280
g1097
sS'Vest-Agder'
p1281
g100
sS'Bukhoro'
p1282
g7
sS"P'yongan-bukto"
p1283
g115
sS'Diyarbakir'
p1284
g50
sS'Dapitan'
p1285
g1238
sS'Akhmetis Raioni'
p1286
g5
sS'Choiseul'
p1287
g42
sS'Pasay'
p1288
g1097
sS'Cahul'
p1289
g674
sS'Komi-Permyak'
p1290
g249
sS'Cholla-namdo'
p1291
g33
sS'Vrancea'
p1292
g169
sS'Surat Thani'
p1293
g232
sS'Dobeles'
p1294
g5
sS'Pozesko-Slavonska'
p1295
g115
sS'Ali Sabieh'
p1296
g71
sS'Lagunes'
p1297
g143
sS'Drama'
p1298
g42
sS'Ordino'
p1299
g54
sS'Shabeellaha Dhexe'
p1300
g48
sS'Chiquimula'
p1301
g42
sS'Zelezniki'
p1302
g751
sS"T'ai-pei"
p1303
g74
sS'Molise'
p1304
g115
sS'La Rioja'
p1305
g44
sS'Potaro-Siparuni'
p1306
g11
sS'Western Australia'
p1307
g5
sS'East Renfrewshire'
p1308
S'U7'
p1309
sS'Ust-Orda Buryat'
p1310
g143
sS'Lubuskie'
p1311
g978
sS'Tocantins'
p1312
g87
sS'West Kazakhstan'
p1313
g193
sS'Surigao'
p1314
g634
sS'Cibitoke'
p1315
g44
sS'Beqaa'
p1316
g5
sS'Gelderland'
p1317
g74
sS'West New Britain'
p1318
g11
sS'Canelones'
p1319
g7
sS'Panjshir'
p1320
g491
sS'Ajman'
p1321
g7
sS'Nagasaki'
p1322
g227
sS"M'sila"
p1323
g227
sS'Nana-Mambere'
p1324
g202
sS'Rivas'
p1325
g446
sS'Khammouan'
p1326
g42
sS'Meknes-Tafilalet'
p1327
g240
sS'Puducherry'
p1328
g155
sS'Solola'
p1329
g100
sS'Shaviyani'
p1330
g112
sS'Kenedougou'
p1331
g56
sS'Wele-Nzas'
p1332
g202
sS'Yomou'
p1333
g354
sS"Vitsyebskaya Voblasts'"
p1334
g193
sS'Zelino'
p1335
g40
sS'Blida'
p1336
g279
sS'Slovenske Konjice'
p1337
g830
sS'Espaillat'
p1338
g5
sS'Galle'
p1339
g17
sS'Atlantida'
p1340
g71
sS'Lira'
p1341
g191
sS'Bakhtaran'
p1342
g48
sS'Somerset'
p1343
S'M3'
p1344
sS'Floresti'
p1345
g77
sS'Kyoto'
p1346
g155
sS'North Lincolnshire'
p1347
S'J3'
p1348
sS'Virginia'
p1349
S'VA'
p1350
sS'Kigoma'
p1351
g54
sS"Chernivets'ka Oblast'"
p1352
g74
sS'Makedonski Brod'
p1353
S'63'
p1354
sS'Ragged Island'
p1355
g27
sS'Crna na Koroskem'
p1356
g33
sS'Hawaii'
p1357
S'HI'
p1358
sS'Presov'
p1359
g54
sS'Argolis'
p1360
g356
sS'Samut Songkhram'
p1361
g56
sS"Ch'okhatauris Raioni"
p1362
g33
sS'Arnessysla'
p1363
g74
sS'Soldanesti'
p1364
g281
sS'Fukui'
p1365
g17
sS'Collines'
p1366
g115
sS'San Andres y Providencia'
p1367
g733
sS'Goias'
p1368
g354
sS'Kalmyk'
p1369
g80
sS'Zacatecas'
p1370
g13
sS'Lola'
p1371
g356
sS'Matara'
p1372
g446
sS'Al Aqabah'
p1373
g50
sS'Chhattisgarh'
p1374
g177
sS'Saint James Windward'
p1375
g54
sS'Rukwa'
p1376
g80
sS'Valandovo'
p1377
g890
sS'Kikladhes'
p1378
g358
sS'Labe'
p1379
g1056
sS'Shabeellaha Hoose'
p1380
g106
sS'Hrpelje-Kozina'
p1381
g249
sS'Aquitaine'
p1382
g216
sS'Fiorentino'
p1383
g54
sS'Sanma'
p1384
g48
sS'Bengo'
p1385
g100
sS'Rukungiri'
p1386
g267
sS'Pool'
p1387
g115
sS'Torfaen'
p1388
S'Z2'
p1389
sS'Graubunden'
p1390
g202
sS'Kungota'
p1391
g513
sS'Retalhuleu'
p1392
g446
sS'Dublin'
p1393
g193
sS'Labuan'
p1394
g446
sS'Central River'
p1395
g74
sS'Chai Nat'
p1396
g13
sS'Antrim'
p1397
S'Q6'
p1398
sS'Qafsah'
p1399
g67
sS'Monaco'
p1400
g7
sS'Camaguey'
p1401
g54
sS'Monmouthshire'
p1402
S'Y4'
p1403
sS'Kibale'
p1404
g9
sS'Cabanas'
p1405
g7
sS'Lasithi'
p1406
g15
sS'Mafeteng'
p1407
g48
sS'Wigan'
p1408
S'P7'
p1409
sS'Ar Raqqah'
p1410
g42
sS'Al Bahah'
p1411
g7
sS"P'ot'i"
p1412
g491
sS'Brakna'
p1413
g54
sS'Slough'
p1414
S'M1'
p1415
sS'South Lanarkshire'
p1416
S'W5'
p1417
sS'Phra Nakhon Si Ayutthaya'
p1418
g356
sS'Nayala'
p1419
S'66'
p1420
sS'Calabria'
p1421
g74
sS'Akita'
p1422
g7
sS'Saskatchewan'
p1423
S'SK'
p1424
sS'Falesti'
p1425
g1274
sS'Overijssel'
p1426
g446
sS'Manipur'
p1427
g11
sS'Samokov'
p1428
g501
sS'Merthyr Tydfil'
p1429
S'Y3'
p1430
sS'Maluku Utara'
p1431
g354
sS'Murmansk'
p1432
g358
sS'Cadiz'
p1433
g89
sS'Florida'
p1434
S'FL'
p1435
sS'Saraburi'
p1436
g177
sS'Koulikoro'
p1437
g193
sS'San Pedro'
p1438
g11
sS'Nograd'
p1439
g106
sS'Madinat Hamad'
p1440
g106
sS'Yasothon'
p1441
g236
sS'Harjumaa'
p1442
g71
sS'Pursat'
p1443
g44
sS'Karibib'
p1444
g193
sS'Souss-Massa-Dr,a'
p1445
g513
sS'Merida'
p1446
g106
sS'Samangan'
p1447
g13
sS'Torbay'
p1448
S'O4'
p1449
sS'Xankandi'
p1450
g134
sS'Zaghouan'
p1451
g177
sS'Santa Ana'
p1452
g115
sS'Sakon Nakhon'
p1453
g279
sS'Tuva'
p1454
g294
sS'Esteli'
p1455
g54
sS'Turgovishte'
p1456
g232
sS'Flevoland'
p1457
g33
sS'Vestur-Skaftafellssysla'
p1458
g177
sS'Autonoma Atlantico Norte'
p1459
g11
sS'Kayseri'
p1460
g58
sS'La Romana'
p1461
g44
sS'Queensland'
p1462
g42
sS'Bakool'
p1463
g71
sS'Quezon'
p1464
S'H2'
p1465
sS'Bilasuvar'
p1466
g48
sS'Krabi'
p1467
g1354
sS'Jariyan al Batnah'
p1468
g115
sS'Hiroshima'
p1469
g115
sS'Kgatleng'
p1470
g54
sS'Vestfiroir'
p1471
g138
sS'Rogaland'
p1472
g106
sS'Olt'
p1473
g354
sS'Mahajanga'
p1474
g74
sS'Chiradzulu'
p1475
g74
sS'Artibonite'
p1476
g17
sS'Galapagos'
p1477
g71
sS'Olongapo'
p1478
S'E3'
p1479
sS'Marsh Harbour'
p1480
g87
sS'Chiesanuova'
p1481
g7
sS'Lipkovo'
p1482
g374
sS'Bosilovo'
p1483
g115
sS"Semenawi K'eyih Bahri"
p1484
g17
sS'Tombouctou'
p1485
g5
sS'Fthiotis'
p1486
g354
sS'Dodoma'
p1487
g74
sS'Hackney'
p1488
g559
sS'Midtjylland'
p1489
g27
sS'Zamboanga del Sur'
p1490
g1420
sS'Strandasysla'
p1491
g277
sS'Manzini'
p1492
g74
sS'Zulia'
p1493
g103
sS'Kars'
p1494
g299
sS'Fejer'
p1495
g5
sS'Makedonska Kamenica'
p1496
g65
sS'Kara'
p1497
g103
sS'Mchinji'
p1498
g48
sS'Liege'
p1499
g42
sS'Sao Nicolau'
p1500
g67
sS'Monsenor Nouel'
p1501
g87
sS'Tubruq'
p1502
g491
sS'Edinburgh, City of'
p1503
S'U8'
p1504
sS'Tamil Nadu'
p1505
g733
sS'Iraklion'
p1506
g112
sS'Tqibuli'
p1507
g60
sS'San Pedro De Macoris'
p1508
g80
sS'Saint George Basseterre'
p1509
g74
sS"Al Isma'iliyah"
p1510
g193
sS'Gulbenes'
p1511
g202
sS'Fukuoka'
p1512
g193
sS'Sandys'
p1513
g5
sS'Dornogovi'
p1514
g193
sS'Oudalan'
p1515
g345
sS'Atlantico'
p1516
g42
sS'Line Islands'
p1517
g7
sS'Arauca'
p1518
g74
sS'Attapu'
p1519
g71
sS'South Town'
p1520
g42
sS'Sibensko-Kninska'
p1521
g48
sS'Hajdu-Bihar'
p1522
g67
sS'Samos'
p1523
g240
sS'Ruvuma'
p1524
g106
sS'Chiang Mai'
p1525
g7
sS'Bel Ombre'
p1526
g67
sS'Melaka'
p1527
g42
sS'Gulf'
p1528
g7
sS'Taurages Apskritis'
p1529
g65
sS'Bas-Sassandra'
p1530
g978
sS'Syddanmark'
p1531
g50
sS'Gulu'
p1532
g277
sS'Dakar'
p1533
g71
sS'Espirito Santo'
p1534
g5
sS'Galguduud'
p1535
g54
sS'Slaskie'
p1536
g198
sS'Zhejiang'
p1537
g7
sS'Grand Cape Mount'
p1538
g44
sS"Kotayk'"
p1539
g54
sS'Lombardia'
p1540
g202
sS'Naklo'
p1541
g143
sS'Slovenska Bistrica'
p1542
S'L8'
p1543
sS'Matabeleland South'
p1544
g193
sS'Ninotsmindis Raioni'
p1545
g306
sS'Rhode Island'
p1546
S'RI'
p1547
sS'Cascade'
p1548
g115
sS'Fribourg'
p1549
g17
sS'Semnan Province'
p1550
g27
sS'Boe'
p1551
g17
sS'Fujian'
p1552
g193
sS'Saint John Figtree'
p1553
g193
sS'Osh'
p1554
g5
sS'Lhuntshi'
p1555
g115
sS'Poni'
p1556
g63
sS'Bari'
p1557
g74
sS'Ras Al Khaimah'
p1558
g54
sS'Mezica'
p1559
g1274
sS'Vinh Puc Province'
p1560
g281
sS'Kauno Apskritis'
p1561
g209
sS'Pasco'
p1562
g100
sS'Mukdahan'
p1563
g314
sS'Grevena'
p1564
g67
sS'Hereroland Wes'
p1565
g80
sS'Baja California'
p1566
g7
sS'Kerouane'
p1567
g446
sS'Mandiana'
p1568
g177
sS'Pella'
p1569
g193
sS'Darhan-Uul'
p1570
g103
sS'La Digue'
p1571
g446
sS'At Tafilah'
p1572
g44
sS'Dolna Banjica'
p1573
g227
sS'Nitra'
p1574
g42
sS'Smarje pri Jelsah'
p1575
g707
sS'Tokat'
p1576
g232
sS'Marowijne'
p1577
g48
sS'Puerto Rico'
p1578
S'PR'
p1579
sS'Akershus'
p1580
g71
sS'Yamagata'
p1581
g138
sS'Karnten'
p1582
g7
sS'Serravalle'
p1583
g202
sS'Nakhon Phanom'
p1584
g50
sS'Otago'
p1585
S'F7'
p1586
sS'Salto'
p1587
g446
sS'Peravia'
p1588
g249
sS'Catamarca'
p1589
g7
sS'Salta'
p1590
g11
sS'Nana-Grebizi'
p1591
g446
sS'Sumqayit'
p1592
g56
sS'Kanagawa'
p1593
g100
sS'Manawatu-Wanganui'
p1594
g455
sS'Ninawa'
p1595
g446
sS'Quang Ninh'
p1596
g277
sS'Boaco'
p1597
g71
sS'Lindi'
p1598
g193
sS'Tizi Ouzou'
p1599
g106
sS'Kindia'
p1600
g33
sS'Hlavni mesto Praha'
p1601
g163
sS"Luhans'ka Oblast'"
p1602
g106
sS"Astrakhan'"
p1603
g193
sS'Calarasi'
p1604
g9
sS'Laois'
p1605
g446
sS'Al Mahwit'
p1606
g67
sS'Mary'
p1607
g54
sS'Independencia'
p1608
g202
sS'Saint Lucy'
p1609
g193
sS'Borsod-Abauj-Zemplen'
p1610
g42
sS'Mashonaland West'
p1611
g54
sS'Vaisigano'
p1612
g115
sS'Zitose'
p1613
g830
sS'Hainaut'
p1614
g74
sS'Murcia'
p1615
g87
sS'Rezina'
p1616
g198
sS'Eschen'
p1617
g7
sS'Zug'
p1618
g80
sS'Kukes'
p1619
g191
sS'Derby'
p1620
g207
sS'Basilan City'
p1621
g125
sS'Bromley'
p1622
g338
sS'Anetan'
p1623
g74
sS'Benguela'
p1624
g71
sS'Ivancna Gorica'
p1625
g306
sS'Cardiff'
p1626
S'X5'
p1627
sS'Cebu City'
p1628
S'B7'
p1629
sS'Aklan'
p1630
g42
sS'Tipaza'
p1631
g513
sS'Mpigi'
p1632
g501
sS'Languedoc-Roussillon'
p1633
g953
sS'Vodice'
p1634
g1479
sS'Merton'
p1635
S'I4'
p1636
sS'Bolivar'
p1637
g74
sS'Boke'
p1638
g74
sS'Mindoro Occidental'
p1639
g169
sS'Gaziantep'
p1640
g198
sS'Kasserine'
p1641
g7
sS'Trentino-Alto Adige'
p1642
g11
sS'Sefton'
p1643
g1543
sS'Kochi'
p1644
g279
sS'Bohinj'
p1645
g42
sS'Damaraland'
p1646
g155
sS'Saint Thomas'
p1647
g115
sS'Istanbul'
p1648
g1056
sS'Ho Chi Minh'
p1649
g279
sS'Rennell and Bellona'
p1650
g48
sS'Al Kuwayt'
p1651
g7
sS'Karasburg'
p1652
g279
sS'Preveza'
p1653
g100
sS'Al Khartum'
p1654
g354
sS'Newry and Mourne'
p1655
S'S9'
p1656
sS'Rostov'
p1657
g134
sS'Osaka'
p1658
g13
sS'Donegal'
p1659
g17
sS'Viljandimaa'
p1660
g279
sS'Tomsk'
p1661
g77
sS'Masqat'
p1662
g17
sS'Cesar'
p1663
g67
sS'Haa Dhaalu'
p1664
g177
sS'Saramacca'
p1665
g11
sS'Triesenberg'
p1666
g67
sS'Tarhunah'
p1667
g9
sS'Dhaalu'
p1668
g13
sS'Mubende'
p1669
g60
sS'Queretaro de Arteaga'
p1670
g155
sS'Dauphin'
p1671
g7
sS'Taegu-jikhalsi'
p1672
g446
sS'Tierra del Fuego'
p1673
g103
sS'Baie Lazare'
p1674
g17
sS'Kaolack'
p1675
g67
sS'Plateaux'
p1676
g733
sS'Gorgol'
p1677
g42
sS'Erongo'
p1678
g354
sS'Cacheu'
p1679
g17
sS'Oslomej'
p1680
g204
sS'Lipa'
p1681
S'D6'
p1682
sS'Gnagna'
p1683
g50
sS'Lower River'
p1684
g7
sS'Matanzas'
p1685
g74
sS'Malaita'
p1686
g74
sS'Banska Bystrica'
p1687
g71
sS'Gracias a Dios'
p1688
g202
sS'Briceni'
p1689
g1354
sS'Mountain'
p1690
g138
sS'Greenwich'
p1691
g309
sS'Kahramanmaras'
p1692
g15
sS'Farah'
p1693
g17
sS'Praslin'
p1694
g115
sS'Hiiraan'
p1695
g193
sS'Manila'
p1696
g593
sS'Dobrepolje'
p1697
g279
sS'Kohkiluyeh va Buyer Ahmadi'
p1698
g54
sS"Ma'akel"
p1699
g54
sS'Federal Capital Territory'
p1700
g115
sS'Fa'
p1701
g42
sS"Zhytomyrs'ka Oblast'"
p1702
g227
sS'Ljutomer'
p1703
S'I6'
p1704
sS'Ohangwena'
p1705
g345
sS'Galway'
p1706
g67
sS'Isla de la Juventud'
p1707
g42
sS'Kranjska Gora'
p1708
g324
sS'Kirsehir'
p1709
g169
sS'Lapu-Lapu'
p1710
g317
sS'Sucre'
p1711
g100
sS'Lunda Sul'
p1712
g27
sS'Savanne'
p1713
g279
sS'Niederosterreich'
p1714
g74
sS'Brong-Ahafo'
p1715
g74
sS'Velike Lasce'
p1716
g371
sS'Tarabulus'
p1717
g134
sS'North Down'
p1718
S'T2'
p1719
sS"Bur Sa'id"
p1720
g100
sS'Kweneng'
p1721
g17
sS'Ntcheu'
p1722
g33
sS'Jihocesky kraj'
p1723
g294
sS'Maale'
p1724
g169
sS'Oshana'
p1725
g177
sS'Iligan'
p1726
g296
sS'HaZafon'
p1727
g74
sS'Khorasan-e Razavi'
p1728
g491
sS'Galati'
p1729
g27
sS'Vasternorrlands Lan'
p1730
g80
sS'Saatli'
p1731
g112
sS'Warrington'
p1732
S'P2'
p1733
sS'Madre de Dios'
p1734
g11
sS'Piran'
p1735
S'J9'
p1736
sS'Erzurum'
p1737
g733
sS'Guarda'
p1738
g115
sS'Miren-Kostanjevica'
p1739
S'J5'
p1740
sS'Stirling'
p1741
S'W6'
p1742
sS'Wakefield'
p1743
S'O7'
p1744
sS'Ida-Virumaa'
p1745
g74
sS'Lelouma'
p1746
g249
sS'Putrajaya'
p1747
g11
sS'Illizi'
p1748
g15
sS'Giurgiu'
p1749
g491
sS'Long Island'
p1750
g446
sS'Offaly'
p1751
g103
sS'Blackpool'
p1752
g953
sS'Tennessee'
p1753
S'TN'
p1754
sS'Anse aux Pins'
p1755
g71
sS'Sisacko-Moslavacka'
p1756
g106
sS'Gorisnica'
p1757
g797
sS'Jinja'
p1758
g345
sS'Manyara'
p1759
g227
sS'Extreme-Nord'
p1760
g44
sS'Minnesota'
p1761
S'MN'
p1762
sS'Tower Hamlets'
p1763
S'O5'
p1764
sS'Hakkari'
p1765
g85
sS"Stavropol'"
p1766
g85
sS'East Lothian'
p1767
S'U6'
p1768
sS'Bretagne'
p1769
g749
sS'Samana'
p1770
g279
sS'Basel-Landschaft'
p1771
g74
sS'Neath Port Talbot'
p1772
S'Y5'
p1773
sS'Monaghan'
p1774
g155
sS'Chitipa'
p1775
g42
sS'Thuringen'
p1776
g446
sS'Saint Georges'
p1777
g7
sS'Porto'
p1778
g11
sS'Dubai'
p1779
g74
sS'Glodeni'
p1780
g978
sS'Mozirje'
p1781
g294
sS'Elazig'
p1782
g103
sS'Al Jabal al Akhdar'
p1783
g358
sS'Mayuge'
p1784
g281
sS'Artigas'
p1785
g71
sS'Baghlan'
p1786
g74
sS'Gateshead'
p1787
S'E5'
p1788
sS'Sal'
p1789
g5
sS'Nakapiripirit'
p1790
g845
sS'Vavuniya'
p1791
g797
sS'Austur-Hunavatnssysla'
p1792
g54
sS'Sanguie'
p1793
g356
sS'Dong Nai'
p1794
g112
sS'Mouhoun'
p1795
g1354
sS'Dependencias Federales'
p1796
g80
sS'Namur'
p1797
g193
sS'Debrecen'
p1798
g193
sS'Cross River'
p1799
g155
sS'East New Britain'
p1800
g67
sS'Tuy'
p1801
g1274
sS'Cuvette-Ouest'
p1802
g106
sS'Kibungo'
p1803
g193
sS'Ouest'
p1804
g115
sS'Alifu'
p1805
g277
sS'Tasmania'
p1806
g17
sS'Anseba'
p1807
g71
sS'Chimbu'
p1808
g5
sS'Aydin'
p1809
g202
sS'Tumbes'
p1810
g80
sS'Catanduanes'
p1811
g100
sS'Aceh'
p1812
g71
sS'Nibok'
p1813
g44
sS'Siguiri'
p1814
g306
sS'Madrid'
p1815
g354
sS'Tatarstan'
p1816
g24
sS'Zamboanga del Norte'
p1817
g416
sS'South Ayrshire'
p1818
S'W4'
p1819
sS'Madriz'
p1820
g202
sS'Qom'
p1821
g306
sS"Odes'ka Oblast'"
p1822
g11
sS'Oxfordshire'
p1823
S'K2'
p1824
sS'Nkhotakota'
p1825
g27
sS'Maseru'
p1826
g106
sS'Shabwah'
p1827
g54
sS'Nara'
p1828
g797
sS'Ambrym'
p1829
g54
sS"Lanch'khut'is Raioni"
p1830
g345
sS'Sabah'
p1831
g33
sS'Semnan'
p1832
g733
sS'Eastern'
p1833
g7
sS'Faro'
p1834
g202
sS'Kandal'
p1835
g193
sS'Coast'
p1836
g7
sS'Fars'
p1837
g193
sS'Vargas'
p1838
g468
sS'La Pampa'
p1839
g115
sS'Qina'
p1840
g103
sS'Yerushalayim'
p1841
g17
sS'Boffa'
p1842
g7
sS'Aluksnes'
p1843
g7
sS'Illinois'
p1844
S'IL'
p1845
sS'Bolton'
p1846
g89
sS'Colima'
p1847
g5
sS'Sabha'
p1848
g1056
sS"Cherkas'ka Oblast'"
p1849
g71
sS'Cabo Delgado'
p1850
g71
sS'New York'
p1851
S'NY'
p1852
sS'Rift Valley'
p1853
g5
sS'Thies'
p1854
g193
sS'Medea'
p1855
g17
sS'Zaire'
p1856
g33
sS'Abia'
p1857
g112
sS'Tanger-Tetouan'
p1858
g209
sS"Debubawi K'eyih Bahri"
p1859
g74
sS"T'erjolis Raioni"
p1860
g324
sS'Camarines Norte'
p1861
g446
sS'Pemba South'
p1862
g279
sS'Westminster'
p1863
S'P5'
p1864
sS'Vasilevo'
p1865
g953
sS'Mizoram'
p1866
g87
sS'Oio'
p1867
g42
sS'Punakha'
p1868
g446
sS'Hhohho'
p1869
g71
sS'Drenthe'
p1870
g71
sS'Nord-Trondelag'
p1871
g67
sS'Tindouf'
p1872
g56
sS'Gamprin'
p1873
g74
sS'Nordrhein-Westfalen'
p1874
g193
sS'Malopolskie'
p1875
g204
sS'Saarland'
p1876
g202
sS'Toyama'
p1877
g491
sS'Kaesong-si'
p1878
g5
sS'Trat'
p1879
g358
sS'Denizli'
p1880
g279
sS'Kosi'
p1881
g193
sS'Portalegre'
p1882
g33
sS'Mannar'
p1883
g468
sS'Tambacounda'
p1884
g54
sS'Buada'
p1885
g193
sS'Takhar'
p1886
g468
sS'Kobarid'
p1887
g15
sS'Blaenau Gwent'
p1888
S'X2'
p1889
sS'Suceava'
p1890
g1056
sS'Irrawaddy'
p1891
g74
sS'Tekirdag'
p1892
g374
sS'Mullaittivu'
p1893
g227
sS'Maluku'
p1894
g797
sS'Mostaganem'
p1895
g193
sS'Tapoa'
p1896
g491
sS'Ogun'
p1897
g33
sS'Nueva Asuncion'
p1898
g50
sS'Yoro'
p1899
g27
sS'Tunceli'
p1900
g65
sS'York'
p1901
S'Q5'
p1902
sS'Kisela Voda'
p1903
g138
sS'Oguz'
p1904
g177
sS'Xocali'
p1905
g674
sS'Bilecik'
p1906
g115
sS'Mersin'
p1907
g13
sS'Rodrigues'
p1908
g103
sS'Bashkortostan'
p1909
g5
sS'Antananarivo'
p1910
g54
sS'Logone Occidental'
p1911
g5
sS'Neembucu'
p1912
g48
sS'Isparta'
p1913
g345
sS'Tete'
p1914
g5
sS'Cookstown'
p1915
S'R7'
p1916
sS'Vuzenica'
p1917
g961
sS'Namangan'
p1918
g17
sS'Khowst'
p1919
g177
sS'Jinotega'
p1920
g193
sS'Amasya'
p1921
g54
sS'Redbridge'
p1922
S'K8'
p1923
sS'Radovljica'
p1924
S'A3'
p1925
sS'Camden'
p1926
g830
sS'Brent'
p1927
g439
sS'Shimane'
p1928
g356
sS'London, City of'
p1929
S'H9'
p1930
sS'Vestur-Bardastrandarsysla'
p1931
g1056
sS'More og Romsdal'
p1932
g5
sS'La Altagracia'
p1933
g67
sS'Tougue'
p1934
g797
sS"Ivano-Frankivs'ka Oblast'"
p1935
g17
sS'Vorarlberg'
p1936
g5
sS'Aurora'
p1937
S'G8'
p1938
sS'Outjo'
p1939
g106
sS'Zalaegerszeg'
p1940
g169
sS'Sar-e Pol'
p1941
g345
sS'Gobabis'
p1942
g42
sS'Tissemsilt'
p1943
g60
sS'West Virginia'
p1944
S'WV'
p1945
sS"N'zi-Comoe"
p1946
g281
sS'Lozovo'
p1947
g232
sS'Ilam'
p1948
g67
sS'Dabola'
p1949
g54
sS'Santa Fe'
p1950
g50
sS'Cabinda'
p1951
g74
sS'Ghazni'
p1952
g5
sS'Azua'
p1953
g71
sS'Cotabato'
p1954
g338
sS'Kavala'
p1955
g106
sS'Lorri'
p1956
g17
sS'Luxembourg'
p1957
g17
sS'Al Wakrah Municipality'
p1958
g54
sS"Al Balqa'"
p1959
g7
sS'Bulacan'
p1960
g48
sS'Loja'
p1961
g44
sS'Evros'
p1962
g71
sS'Banteay Meanchey'
p1963
g733
sS'Sangha'
p1964
g67
sS'Al Hadd'
p1965
g71
sS'Bolama'
p1966
g54
sS'Sirnak'
p1967
g620
sS'Bayelsa'
p1968
g163
sS'Yunnan'
p1969
g354
sS'Trencin'
p1970
g17
sS'Saldus'
p1971
g227
sS'Gyor'
p1972
g733
sS'Cocle'
p1973
g74
sS'Guidimaka'
p1974
g67
sS'Tulcea'
p1975
g177
sS'Moravce'
p1976
g204
sS'Sissili'
p1977
g236
sS'Saint Paul'
p1978
g17
sS'Fier'
p1979
g138
sS'Principe'
p1980
g71
sS'Camiguin'
p1981
g11
sS'Kayunga'
p1982
g198
sS'Tel Aviv'
p1983
g54
sS'Meseista'
p1984
g416
sS'San Blas'
p1985
g202
sS'Saint Peter'
p1986
g193
sS'Argyll and Bute'
p1987
S'T8'
p1988
sS'Manus'
p1989
g48
sS'Saint George Gingerland'
p1990
g42
sS'Gambela Hizboch'
p1991
g358
sS'Zamboanga'
p1992
g389
sS'Dornava'
p1993
g80
sS'Fromager'
p1994
g294
sS'Vestgronland'
p1995
g74
sS'Can Tho'
p1996
g82
sS'Tallinn'
p1997
g33
sS'Astara'
p1998
g5
sS'Surkhondaryo'
p1999
g44
sS'Masaka'
p2000
g957
sS'Naouri'
p2001
g416
sS'Palauli'
p2002
g5
sS'Akhaia'
p2003
g58
sS'Buenos Aires'
p2004
g71
sS'Salyan'
p2005
g358
sS'Kutahya'
p2006
g437
sS'Vlore'
p2007
g35
sS'Lanao del Norte'
p2008
g1056
sS'Kavadarci'
p2009
g491
sS'Thanh Hoa'
p2010
g1056
sS'Asturias'
p2011
g1056
sS'Hamgyong-bukto'
p2012
g11
sS'Nairobi Area'
p2013
g54
sS'Quthing'
p2014
g27
sS'Kilkenny'
p2015
g48
sS'Plovdiv'
p2016
g35
sS"Mahilyowskaya Voblasts'"
p2017
g17
sS'Szekesfehervar'
p2018
g249
sS'Meath'
p2019
g50
sS'Sichuan'
p2020
g13
sS'Sakarya'
p2021
g56
sS'Colombo'
p2022
g103
sS'Kemerovo'
p2023
g354
sS'Shanxi'
p2024
g80
sS'Hatay'
p2025
g87
sS'Staravina'
p2026
g586
sS'HaDarom'
p2027
g71
sS'Loroum'
p2028
g65
sS'Al Qahirah'
p2029
g115
sS'Haciqabul'
p2030
g103
sS'Rutland'
p2031
S'L4'
p2032
sS'Moneragala'
p2033
g33
sS'Maltahohe'
p2034
g67
sS'Vastra Gotaland'
p2035
g797
sS'Victoria'
p2036
g193
sS'Toamasina'
p2037
g42
sS'Kracheh'
p2038
g202
sS'Suchitepequez'
p2039
g279
sS'Uttarakhand'
p2040
g306
sS'Kampala'
p2041
g177
sS'Baden-Wurttemberg'
p2042
g71
sS'Szabolcs-Szatmar-Bereg'
p2043
g27
sS'Liban-Nord'
p2044
g202
sS'Krasnoyarsk'
p2045
g306
sS'Haringey'
p2046
g455
sS'Pointe La Rue'
p2047
g279
sS'Adygeya, Republic of'
p2048
g71
sS'Dhawalagiri'
p2049
g74
sS'Creek'
p2050
g71
sS'Demerara-Mahaica'
p2051
g44
sS'Australian Capital Territory'
p2052
g71
sS'Borgarfjardarsysla'
p2053
g193
sS'Marawi'
p2054
S'E1'
p2055
sS'Windhoek'
p2056
g50
sS'Sevnica'
p2057
g772
sS'Roraima'
p2058
g733
sS'Chuy'
p2059
g7
sS'Wakayama'
p2060
g437
sS'Kisoro'
p2061
g437
sS'Cebu'
p2062
g50
sS'Aswan'
p2063
g33
sS'Chukot'
p2064
g446
sS'Morobe'
p2065
g106
sS'Matam'
p2066
g446
sS'Duplek'
p2067
g468
sS'Guadalcanal'
p2068
g17
sS'Abkhazia'
p2069
g7
sS'Boulgou'
p2070
g358
sS'Dunaujvaros'
p2071
g227
sS'Bracknell Forest'
p2072
S'B3'
p2073
sS'Temburong'
p2074
g67
sS'Herrera'
p2075
g17
sS"Tver'"
p2076
g204
sS"Dnipropetrovs'ka Oblast'"
p2077
g42
sS'Chumphon'
p2078
g147
sS'Sopotnica'
p2079
g267
sS'Montana'
p2080
S'MT'
p2081
sS'Paama'
p2082
g115
sS'Chari-Baguirmi'
p2083
g42
sS'Ijuw'
p2084
g67
sS'Logatec'
p2085
g674
sS'Wiltshire'
p2086
S'P8'
p2087
sS'Moyo'
p2088
g236
sS'Mavrovi Anovi'
p2089
g674
sS'Kastoria'
p2090
g202
sS'Santa Catarina'
p2091
g468
sS'Puglia'
p2092
g48
sS'Siirt'
p2093
g1274
sS'Aksaray'
p2094
g77
sS'Newfoundland'
p2095
S'NL'
p2096
sS'Hadramawt'
p2097
g42
sS'Osun'
p2098
g491
sS'Quang Binh'
p2099
g85
sS'Minsk'
p2100
g42
sS'Lusaka'
p2101
g202
sS"Namp'o-si"
p2102
g106
sS'Abashis Raioni'
p2103
g71
sS'San Pablo'
p2104
g1586
sS'Nakhon Ratchasima'
p2105
g227
sS'Jambi'
p2106
g54
sS'Almaty'
p2107
g71
sS'Saint Anthony'
p2108
g71
sS'Al Buhayrah'
p2109
g74
sS'Diber'
p2110
g9
sS'Kostroma'
p2111
g177
sS'Arhangay'
p2112
g71
sS'Talsu'
p2113
g797
sS'Dobrova-Horjul-Polhov Gradec'
p2114
S'G4'
p2115
sS'Moyen-Comoe'
p2116
g403
sS'Hillingdon'
p2117
g634
sS'Ards'
p2118
S'Q7'
p2119
sS'Prilep'
p2120
g143
sS'Barbuda'
p2121
g71
sS'Valle del Cauca'
p2122
g354
sS'Bekes'
p2123
g74
sS'Bremen'
p2124
g74
sS'Walsall'
p2125
S'O8'
p2126
sS'Setif'
p2127
g44
sS'Niedersachsen'
p2128
g17
sS'Zanzibar Urban'
p2129
g733
sS'Worodougou'
p2130
g845
sS'Riga'
p2131
g733
sS'Saint Thomas Lowland'
p2132
g44
sS'Phitsanulok'
p2133
g44
sS'Suto Orizari'
p2134
g1925
sS'Narva'
p2135
g202
sS'Forecariah'
p2136
g67
sS'Rif Dimashq'
p2137
g5
sS'Utah'
p2138
S'UT'
p2139
sS'Phongsali'
p2140
g5
sS'Pennsylvania'
p2141
S'PA'
p2142
sS'Szolnok'
p2143
g356
sS"At Ta'mim"
p2144
g48
sS'Tsumeb'
p2145
g27
sS'Nichollstown and Berry Islands'
p2146
g13
sS'Jegunovce'
p2147
g58
sS'Huila'
p2148
g202
sS'Islas de la Bahia'
p2149
g115
sS'East Riding of Yorkshire'
p2150
g2055
sS'Suhaj'
p2151
g80
sS'Maranhao'
p2152
g48
sS'Morona-Santiago'
p2153
g446
sS'Alba'
p2154
g71
sS'Bohol'
p2155
g115
sS'Dumfries and Galloway'
p2156
S'U2'
p2157
sS'Harghita'
p2158
g279
sS'Aspindzis Raioni'
p2159
g67
sS'Rosoman'
p2160
g82
sS'Phoenix Islands'
p2161
g74
sS'Khobis Raioni'
p2162
g354
sS'Cucer-Sandevo'
p2163
g279
sS'Umm Al Quwain'
p2164
g193
sS'Dundgovi'
p2165
g5
sS'Yaracuy'
p2166
g155
sS'Kerkira'
p2167
g733
sS'Rocha'
p2168
g106
sS'Zinder'
p2169
g193
sS'Rigas'
p2170
g468
sS'Itapua'
p2171
g115
sS'Fu-chien'
p2172
g71
sS'Usak'
p2173
g674
sS'Sumatera Barat'
p2174
g80
sS'Murtino'
p2175
g667
sS'Basilicata'
p2176
g7
sS'Vanis Raioni'
p2177
g134
sS'Imathia'
p2178
g44
sS'Sencur'
p2179
g420
sS'Yevlax'
p2180
g667
sS'Ha Noi'
p2181
g35
sS'Belcista'
p2182
g74
sS'Sagarmatha'
p2183
g48
sS'Centrale'
p2184
g155
sS'Antique'
p2185
g17
sS'Sandy Point'
p2186
g1056
sS'Saitama'
p2187
g1056
sS'Loski Potok'
p2188
g1420
sS'Divaca'
p2189
g100
sS'Agusan del Sur'
p2190
g74
sS'Pando'
p2191
g17
sS'Kingston upon Hull, City of'
p2192
S'G6'
p2193
sS'Distrito Nacional'
p2194
g1056
sS'Heves'
p2195
g115
sS'Mbale'
p2196
g82
sS'Parnumaa'
p2197
g115
sS'Nayarit'
p2198
g27
sS"Minskaya Voblasts'"
p2199
g54
sS'Saint Mary'
p2200
g54
sS'Tahoua'
p2201
g17
sS'Donga'
p2202
g48
sS'Newcastle upon Tyne'
p2203
g1034
sS'Heilongjiang'
p2204
g5
sS'Marche'
p2205
g67
sS'Arica y Parinacota'
p2206
g33
sS'Utrecht'
p2207
g202
sS'Teleorman'
p2208
g249
sS'Al Bahr al Ahmar'
p2209
g7
sS"Primor'ye"
p2210
g374
sS'Anenii Noi'
p2211
g374
sS'Larne'
p2212
S'S3'
p2213
sS'Kozje'
p2214
g35
sS'As Sulaymaniyah'
p2215
g54
sS'Nottinghamshire'
p2216
g1736
sS'Krasnoyarskiy Kray'
p2217
g845
sS'Sud-Comoe'
p2218
g501
sS'Anuradhapura'
p2219
g7
sS'Lewisham'
p2220
g650
sS'Aguascalientes'
p2221
g71
sS'Podcetrtek'
p2222
g1132
sS'Kalinga-Apayao'
p2223
g13
sS'Bururi'
p2224
g67
sS'Sentilj'
p2225
g2073
sS'Caras-Severin'
p2226
g44
sS'Polvamaa'
p2227
g44
sS'Banten'
p2228
g345
sS'Sud-Ouest'
p2229
g202
sS'Koh Kong'
p2230
g5
sS'Kie-Ntem'
p2231
g193
sS'Putumayo'
p2232
g155
sS'Ormoc'
p2233
S'E4'
p2234
sS'Upper Demerara-Berbice'
p2235
g27
sS'Rakhine State'
p2236
g71
sS'Iringa'
p2237
g42
sS'Guelmim-Es Smara'
p2238
g324
sS'Eastern Cape'
p2239
g54
sS'Vevcani'
p2240
g2073
sS'Karaman'
p2241
g314
sS'Palau'
p2242
S'PW'
p2243
sS'Mardin'
p2244
g236
sS'Ilinden'
p2245
g356
sS"Seoul-t'ukpyolsi"
p2246
g115
sS'Ayacucho'
p2247
g54
sS'Machinga'
p2248
g797
sS'Balaka'
p2249
g468
sS'Rankovce'
p2250
g403
sS'Arequipa'
p2251
g42
sS'Azad Kashmir'
p2252
g17
sS'Khenchela'
p2253
g191
sS'Kgalagadi'
p2254
g42
sS'Miranda'
p2255
g446
sS'Soriano'
p2256
g11
sS'Ad Dali'
p2257
g27
sS'Zomba'
p2258
g103
sS'Dhaka'
p2259
g52
sS'Salima'
p2260
g155
sS'Preddvor'
p2261
S'K5'
p2262
sS'Geylegphug'
p2263
g202
sS'Sipaliwini'
p2264
g27
sS'Carlow'
p2265
g71
sS'Jowzjan'
p2266
g87
sS'Trarza'
p2267
g17
sS'Lenart'
p2268
S'I3'
p2269
sS"Ryazan'"
p2270
g65
sS'San Miguel'
p2271
g202
sS'Bagmati'
p2272
g71
sS'Micoud'
p2273
g5
sS'Sao Paulo'
p2274
g227
sS'Surigao del Sur'
p2275
g65
sS'Gornji Petrovci'
p2276
g87
sS'Ouham-Pende'
p2277
g48
sS'Coimbra'
p2278
g193
sS'Bayern'
p2279
g7
sS'British Columbia'
p2280
S'BC'
p2281
sS'Nimba'
p2282
g202
sS'Al Farwaniyah'
p2283
g193
sS'Chimaltenango'
p2284
g74
sS'Dimashq'
p2285
g48
sS'Ysyk-Kol'
p2286
g193
sS'North-Eastern'
p2287
g17
sS'Islas Baleares'
p2288
g193
sS'Khorasan'
p2289
g277
sS'Sogn og Fjordane'
p2290
g446
sS'Baguio'
p2291
g573
sS'Vila Real'
p2292
g50
sS'Ranong'
p2293
g374
sS'Uttaradit'
p2294
g67
sS'Centro Sur'
p2295
g17
sS'Kalasin'
p2296
g103
sS'Saint Paul Capisterre'
p2297
g202
sS'Al Jumaliyah'
p2298
g74
sS'Bacs-Kiskun'
p2299
g71
sS'Nottingham'
p2300
S'J8'
p2301
sS'Dennery'
p2302
g54
sS'Ifugao'
p2303
g227
sS'Dak Nong'
p2304
g845
sS'Mtwara'
p2305
g115
sS'Permskiy Kray'
p2306
g642
sS'Bioko Sur'
p2307
g54
sS'Xinjiang'
p2308
g48
sS'Jubbada Dhexe'
p2309
g5
sS'Ahal'
p2310
g71
sS'Ribeira Grande'
p2311
g193
sS'Sacatepequez'
p2312
g33
sS'Magnisia'
p2313
g80
sS'Agcabadi'
p2314
g7
sS'Aragon'
p2315
g163
sS'Kagera'
p2316
g100
sS'Kampong Speu'
p2317
g42
sS'Raplamaa'
p2318
g48
sS'Miskolc'
p2319
g48
sS'Tlemcen'
p2320
g446
sS'Valparaiso'
p2321
g71
sS'Maldonado'
p2322
g202
sS"Mts'khet'is Raioni"
p2323
g58
sS'Qazvin'
p2324
g58
sS'Northern Areas'
p2325
g193
sS'Velesta'
p2326
g420
sS'Vestur-Isafjardarsysla'
p2327
g356
sS'Dayr az Zawr'
p2328
g193
sS'La Riviere Anglaise'
p2329
g33
sS'Hai Phong'
p2330
g48
sS'Brazzaville'
p2331
g44
sS'Valkas'
p2332
g277
sS'HaMerkaz'
p2333
g7
sS'Vinh Phu'
p2334
g20
sS'An Najaf'
p2335
g11
sS'Jesenice'
p2336
S'H4'
p2337
sS"Ma'rib"
p2338
g106
sS'Sokoto'
p2339
g35
sS'Marshall Islands'
p2340
S'MH'
p2341
sS'Sachsen'
p2342
g48
sS'Parnu'
p2343
g67
sS'Veles'
p2344
g89
sS'Coquimbo'
p2345
g193
sS'Voiotia'
p2346
g345
sS'Ceredigion'
p2347
S'X6'
p2348
sS'Christ Church Nichola Town'
p2349
g71
sS'Hiiumaa'
p2350
g7
sS'Distrito Federal'
p2351
g193
sS'Mindoro Oriental'
p2352
g9
sS'Surrey'
p2353
S'N7'
p2354
sS'Caerphilly'
p2355
S'X4'
p2356
sS'Karnataka'
p2357
g100
sS'Sudur-Mulasysla'
p2358
g87
sS'Lovech'
p2359
g15
sS'Ondo'
p2360
g240
sS'Belgorod'
p2361
g202
sS'Quinara'
p2362
g7
sS'Hincesti'
p2363
g204
sS'Barda'
p2364
g115
sS'Ganzourgou'
p2365
g279
sS'Karnali'
p2366
g17
sS"Dedop'listsqaros Raioni"
p2367
g11
sS'Bulawayo'
p2368
g202
sS'Saint-Louis'
p2369
g106
sS'Shinyanga'
p2370
g446
sS'Bethanien'
p2371
g71
sS'Ulaanbaatar'
p2372
g279
sS'Telimele'
p2373
g227
sS'Zeeland'
p2374
g67
sS'Jaffna'
p2375
g733
sS'Magherafelt'
p2376
S'S7'
p2377
sS'Shefa'
p2378
g27
sS'Sor-Trondelag'
p2379
g33
sS'Maysan'
p2380
g106
sS'Luce'
p2381
S'I9'
p2382
sS'Port Louis'
p2383
g27
sS'Bong'
p2384
g71
sS'Al Mintaqah al Wusta'
p2385
g115
sS'Jiangxi'
p2386
g74
sS'Evvoia'
p2387
g1056
sS'Gavleborgs Lan'
p2388
g74
sS'Haa Alifu'
p2389
g356
sS'Myrasysla'
p2390
g11
sS'Passore'
p2391
g1056
sS'Kien Giang'
p2392
g191
sS'Antalya'
p2393
g193
sS'Tolima'
p2394
g797
sS'Jasz-Nagykun-Szolnok'
p2395
g279
sS'Riau'
p2396
g177
sS'Armagh'
p2397
S'Q8'
p2398
sS'Darfur'
p2399
g345
sS'Beau Vallon'
p2400
g5
sS'Bratislava'
p2401
g7
sS'Extremadura'
p2402
g209
sS'Gombe'
p2403
g513
sS'Santiago'
p2404
g733
sS'Mislinja'
p2405
g978
sS'Bie'
p2406
g7
sS"Baghdat'is Raioni"
p2407
g115
sS'Coleraine'
p2408
S'R6'
p2409
sS'Orkney'
p2410
S'V9'
p2411
sS'Batken'
p2412
g202
sS'Carrickfergus'
p2413
S'R4'
p2414
sS'Sumatera Utara'
p2415
g468
sS'Sfax'
p2416
g13
sS'Chittagong'
p2417
g299
sS'Zuid-Holland'
p2418
g115
sS'Trinity Palmetto Point'
p2419
g446
sS'Encamp'
p2420
g74
sS'Bahia'
p2421
g54
sS'Magdalena'
p2422
g58
sS'Fife'
p2423
S'V1'
p2424
sS'Al Ladhiqiyah'
p2425
g7
sS'Nzerekore'
p2426
g58
sS'Duarte'
p2427
g17
sS'Conakry'
p2428
g42
sS'Komen'
p2429
g358
sS'Delta Amacuro'
p2430
g202
sS'Batticaloa'
p2431
g42
sS'Yozgat'
p2432
g1420
sS'Orissa'
p2433
g50
sS'Semic'
p2434
g89
sS'Buzau'
p2435
g115
sS'Maule'
p2436
g115
sS'Grosuplje'
p2437
g13
sS'Alta Verapaz'
p2438
g71
sS'Puntarenas'
p2439
g193
sS'Mont-Liban'
p2440
g54
sS'Hounslow'
p2441
g644
sS'Novo Selo'
p2442
g236
sS'Gumushane'
p2443
g63
sS'Dahuk'
p2444
g5
sS'Baa'
p2445
g87
sS'Kiboga'
p2446
g491
sS'Negeri Sembilan'
p2447
g54
sS'Staffordshire'
p2448
S'M9'
p2449
sS'Tristan da Cunha'
p2450
g74
sS'Southern Leyte'
p2451
g374
sS'Westmoreland'
p2452
g33
sS'Buriram'
p2453
g797
sS'Batangas City'
p2454
g677
sS'Treinta y Tres'
p2455
g100
sS'Kampot'
p2456
g17
sS'Javis Raioni'
p2457
g80
sS'North Carolina'
p2458
S'NC'
p2459
sS'Djelfa'
p2460
g155
sS'Matruh'
p2461
g155
sS'Donduseni'
p2462
g85
sS'Savanes'
p2463
g468
sS'Gbarpolu'
p2464
g50
sS'Anhui'
p2465
g71
sS'Karachay-Cherkess'
p2466
g227
sS'Manisa'
p2467
g112
sS'North Central'
p2468
g277
sS'Kardhitsa'
p2469
g103
sS'Aoba'
p2470
g17
sS'Hrastnik'
p2471
g1056
sS'Al Mafraq'
p2472
g446
sS'Kerry'
p2473
g115
sS'Southern'
p2474
g67
sS'Connecticut'
p2475
S'CT'
p2476
sS'Larnaca'
p2477
g74
sS'Saint Ann'
p2478
g202
sS'Brvenica'
p2479
g44
sS'Belize'
p2480
g71
sS'Monte Plata'
p2481
g13
sS'Salford'
p2482
S'L5'
p2483
sS'Cair'
p2484
g48
sS'Thaa'
p2485
g15
sS'Mopti'
p2486
g42
sS'Lavalleja'
p2487
g5
sS'Trang'
p2488
g416
sS'Maniema'
p2489
g67
sS'Andijon'
p2490
g71
sS'Saint Paul Charlestown'
p2491
g67
sS'Saint Mark'
p2492
g5
sS'Gullbringusysla'
p2493
g67
sS'Dhodhekanisos'
p2494
g191
sS'Kedah'
p2495
g7
sS'Kafr ash Shaykh'
p2496
g50
sS'Lakonia'
p2497
g491
sS'Tataouine'
p2498
g1056
sS'Tianjin'
p2499
g797
sS'Sourou'
p2500
g24
sS'Butuan'
p2501
g890
sS'Trece Martires'
p2502
g2193
sS'Diekirch'
p2503
g71
sS'Al Hudaydah'
p2504
g5
sS'Kordestan'
p2505
g33
sS'Lesvos'
p2506
g35
sS'Sinop'
p2507
g209
sS'Borkou-Ennedi-Tibesti'
p2508
g74
sS'Ajaria'
p2509
g42
sS'Western Finland'
p2510
g446
sS'National Capital'
p2511
g279
sS'Centar'
p2512
g11
sS'Tebessa'
p2513
g345
sS'West Dunbartonshire'
p2514
S'W7'
p2515
sS'Freeport'
p2516
g733
sS'Al Qadisiyah'
p2517
g42
sS'Mont Fleuri'
p2518
g27
sS'Lubelskie'
p2519
g77
sS'Salcedo'
p2520
g100
sS'La Paz'
p2521
g44
sS'Gardabanis Raioni'
p2522
g279
sS'Liberecky kraj'
p2523
g198
sS'Leicester'
p2524
g2337
sS'Durango'
p2525
g67
sS'Blantyre'
p2526
g80
sS'Portland'
p2527
g193
sS'Karlovarsky kraj'
p2528
g52
sS'Piura'
p2529
g279
sS'Saraj'
p2530
g642
sS'Hentiy'
p2531
g115
sS'Kerman'
p2532
g354
sS'Arima'
p2533
g71
sS'Rethimni'
p2534
g138
sS'Tsalenjikhis Raioni'
p2535
g147
sS'Madinat'
p2536
g44
sS'Poitou-Charentes'
p2537
g1629
sS'Nicosia'
p2538
g42
sS'San Vicente'
p2539
g44
sS"Chernihivs'ka Oblast'"
p2540
g7
sS'Shiselweni'
p2541
g42
sS'Gao'
p2542
g202
sS'Topolcani'
p2543
g677
sS'Essequibo Islands-West Demerara'
p2544
g106
sS'Al Munastir'
p2545
g33
sS'Corse'
p2546
g247
sS'Kampong Thum'
p2547
g54
sS'Orhei'
p2548
g143
sS'Mamou'
p2549
g103
sS'Setubal'
p2550
g100
sS'Manouba'
p2551
g306
sS'Lhaviyani'
p2552
g306
sS'Tigray'
p2553
g324
sS'Kidal'
p2554
g67
sS'Varna'
p2555
g134
sS'Resen'
p2556
g281
sS'Mikhaylovgrad'
p2557
g345
sS'Barnsley'
p2558
g1925
sS'Vojnik'
p2559
S'N3'
p2560
sS'Salah ad Din'
p2561
g27
sS'Derry'
p2562
S'S6'
p2563
sS'Northland'
p2564
g260
sS'Liaoning'
p2565
g100
sS'Maribor'
p2566
S'J2'
p2567
sS'Bridgend'
p2568
S'X3'
p2569
sS'Gitega'
p2570
g48
sS'Sidi Bel Abbes'
p2571
g277
sS'Dorce Petrov'
p2572
g354
sS'Ewa'
p2573
g202
sS'Brandenburg'
p2574
g115
sS'Basse-Normandie'
p2575
g140
sS'Akwa Ibom'
p2576
g50
sS'Najran'
p2577
g33
sS'Aust-Agder'
p2578
g7
sS'Opolskie'
p2579
g294
sS'Leova'
p2580
g294
sS'Trnava'
p2581
g193
sS'Limpopo'
p2582
g202
sS'Kalmar Lan'
p2583
g202
sS'Ha'
p2584
g71
sS'Bouira'
p2585
g50
sS'Quba'
p2586
g491
sS'Bitlis'
p2587
g48
sS'Ha Tinh'
p2588
g232
sS'Larisa'
p2589
g50
sS'Paraguari'
p2590
g446
sS'Paktika'
p2591
g354
sS'Orizari'
p2592
g978
sS'Kurdamir'
p2593
g227
sS'Powys'
p2594
S'Y8'
p2595
sS'Phnum Penh'
p2596
g115
sS'Essex'
p2597
g2234
sS'Bled'
p2598
g74
sS'Obock'
p2599
g42
sS'Thai Nguyen'
p2600
g403
sS'Helmand'
p2601
g67
sS'Camarines Sur'
p2602
g33
sS'Karpos'
p2603
g9
sS'Abyan'
p2604
g71
sS'Leribe'
p2605
g44
sS'Prince Edward Island'
p2606
S'PE'
p2607
sS'Dix-Huit Montagnes'
p2608
g314
sS'Kabol'
p2609
g48
sS'Midlands'
p2610
g7
sS'Rangoon'
p2611
g106
sS'Hedmark'
p2612
g17
sS'Saint Patrick'
p2613
g202
sS'Zajas'
p2614
g158
sS'Bugiri'
p2615
g1420
sS'Izola-Isola'
p2616
g169
sS'Chuquisaca'
p2617
g71
sS'Tuamasaga'
p2618
g67
sS'Koulpelogo'
p2619
g374
sS'Kurdzhali'
p2620
g138
sS'Tetovo'
p2621
g125
sS'Mordovia'
p2622
g15
sS'North Tyneside'
p2623
g1740
sS'Stara Zagora'
p2624
g374
sS'Sopiste'
p2625
g1132
sS'Kagoshima'
p2626
g27
sS'Nurestan'
p2627
g58
sS'Ha Tay'
p2628
g374
sS'Gagaifomauga'
p2629
g193
sS'Isle of Wight'
p2630
g167
sS'Mwanza'
p2631
g44
sS'Nord-Pas-de-Calais'
p2632
g843
sS'Cornwall'
p2633
g238
sS'Luwero'
p2634
g85
sS'Northwest Territories'
p2635
S'NT'
p2636
sS'Cusco'
p2637
g5
sS'Anibare'
p2638
g42
sS'Barisal'
p2639
g403
sS'Serrai'
p2640
g54
sS'Gilbert Islands'
p2641
g71
sS'La,youne-Boujdour-Sakia El Hamra'
p2642
g374
sS'Bamingui-Bangoran'
p2643
g71
sS'Chikwawa'
p2644
g7
sS'Tabuk'
p2645
g100
sS'Nizhegorod'
p2646
g35
sS'Arusha'
p2647
g468
sS'Racam'
p2648
g1121
sS"Sevastopol'"
p2649
g279
sS'Sunderland'
p2650
S'N6'
p2651
sS'Tabora'
p2652
g11
sS'Arbil'
p2653
g115
sS'Borovnica'
p2654
g54
sS'East Berbice-Corentyne'
p2655
g48
sS'Vestfold'
p2656
g279
sS"Akhalk'alak'is Raioni"
p2657
g17
sS'Istarska'
p2658
g42
sS'Azores'
p2659
g103
sS'Cerknica'
p2660
g48
sS'Okavango'
p2661
g1056
sS'Sumatera Selatan'
p2662
g13
sS'Lunda Norte'
p2663
g11
sS'Mosteiros'
p2664
g48
sS'Dar'
p2665
g17
sS'Xanthi'
p2666
g74
sS'Diourbel'
p2667
g74
sS'Bury'
p2668
g158
sS'Rio Grande do Sul'
p2669
g103
sS'Orel'
p2670
g60
sS'Kigali'
p2671
g202
sS'Chin State'
p2672
g7
sS'Magallanes y de la Antartica Chilena'
p2673
g67
sS'Dakhlet Nouadhibou'
p2674
g5
sS'Omnogovi'
p2675
g106
sS'Naama'
p2676
g358
sS'Nevsehir'
p2677
g20
sS'Leningrad'
p2678
g491
sS'Rogatec'
p2679
g890
sS'Al Hasakah'
p2680
g71
sS'Southend-on-Sea'
p2681
S'M5'
p2682
sS'Jelgavas'
p2683
g44
sS'Ancash'
p2684
g7
sS'Gisborne'
p2685
g751
sS'Manicaland'
p2686
g71
sS'Chisinau'
p2687
g209
sS'Thimphu'
p2688
g279
sS'El Tarf'
p2689
g138
sS'Novo Mesto'
p2690
g534
sS'Sheffield'
p2691
S'L9'
p2692
sS'Kuala Lumpur'
p2693
g106
sS'Eskisehir'
p2694
g468
sS'Iwate'
p2695
g33
sS'Ajlun'
p2696
g279
sS'Al Mahdia'
p2697
g446
sS'Hodh El Gharbi'
p2698
g7
sS'Shaanxi'
p2699
g468
sS'Irbid'
p2700
g27
sS'Stinga Nistrului'
p2701
g147
sS'Delogozdi'
p2702
g103
sS'Yucatan'
p2703
g87
sS"Tyumen'"
p2704
g314
sS'Darhan'
p2705
g54
sS'Buryat'
p2706
g115
sS'Rivers'
p2707
g20
sS'Maine'
p2708
S'ME'
p2709
sS'Haut-Mbomou'
p2710
g54
sS'Nam Ha'
p2711
g416
sS'Bizerte'
p2712
g27
sS'Centar Zupa'
p2713
g27
sS'Wokingham'
p2714
S'Q2'
p2715
sS'Norrbottens Lan'
p2716
g106
sS'Dar es Salaam'
p2717
g103
sS'Bacau'
p2718
g42
sS'Amnat Charoen'
p2719
g204
sS'Wanica'
p2720
g100
sS'Quintana Roo'
p2721
g103
sS'Limbazu'
p2722
g27
sS'Jursinci'
p2723
g491
sS'Khorasan-e Janubi'
p2724
g9
sS'Caazapa'
p2725
g54
sS'Pita'
p2726
g733
sS'Dashoguz'
p2727
g74
sS'Antwerpen'
p2728
g71
sS'Danao'
p2729
g158
sS'Kosovo'
p2730
g71
sS'Kaberamaido'
p2731
g620
sS'Down'
p2732
S'R9'
p2733
sS'Bursa'
p2734
g33
sS'Sukhothai'
p2735
g202
sS'Beyrouth'
p2736
g42
sS"San'a'"
p2737
g33
sS'Kaafu'
p2738
g58
sS'Mie'
p2739
g103
sS'Saint Luke'
p2740
g193
sS'Bryansk'
p2741
g67
sS'Ciudad de la Habana'
p2742
g7
sS'Tarlac'
p2743
g1354
sS'Bovec'
p2744
g17
sS'Aargau'
p2745
g71
sS'Nenets'
p2746
g20
sS'Dundee City'
p2747
S'U3'
p2748
sS'Ghardaia'
p2749
g112
sS'Elias Pina'
p2750
g115
sS"Valle d'Aosta"
p2751
g100
sS'Kuldigas'
p2752
g446
sS'Aqmola'
p2753
g74
sS'Cerro Largo'
p2754
g74
sS'Evora'
p2755
g5
sS'Qubadli'
p2756
g437
sS'Ouaka'
p2757
g115
sS'Samarqand'
p2758
g67
sS'Al Minufiyah'
p2759
g202
sS'Balzers'
p2760
g71
sS"Rivnens'ka Oblast'"
p2761
g100
sS'Ruyigi'
p2762
g50
sS'Al Wakrah'
p2763
g67
sS'Rio de Janeiro'
p2764
g50
sS'Aichi'
p2765
g71
sS'Tirane'
p2766
g20
sS'Guayas'
p2767
g67
sS'Alibori'
p2768
g193
sS'Ordu'
p2769
g163
sS'Kyyiv'
p2770
g44
sS'Brussels Hoofdstedelijk Gewest'
p2771
g115
sS'Brighton and Hove'
p2772
g772
sS'Delhi'
p2773
g193
sS'Jura'
p2774
g468
sS'Norfolk'
p2775
g2382
sS'Hallands Lan'
p2776
g17
sS'Al Khawr'
p2777
g42
sS'Ventspils'
p2778
g13
sS'Ngounie'
p2779
g42
sS'Kondoz'
p2780
g80
sS'Tipperary'
p2781
g468
sS'Singida'
p2782
g33
sS'South Dakota'
p2783
S'SD'
p2784
sS'Gradsko'
p2785
g249
sS'Beylaqan'
p2786
g44
sS'Falkirk'
p2787
S'U9'
p2788
sS'Yazd'
p2789
g87
sS'Adana'
p2790
g52
sS'Sao Filipe'
p2791
g27
sS'Mila'
p2792
g240
sS'Bataan'
p2793
g193
sS'Chuuk'
p2794
g74
sS'San Marino'
p2795
g193
sS'Zanjan'
p2796
g227
sS'Bafata'
p2797
g71
sS'Torba'
p2798
g193
sS'Abra'
p2799
g71
sS'Valais'
p2800
g155
sS'Sangha-Mbaere'
p2801
g33
sS'Goycay'
p2802
g155
sS'Sakha'
p2803
g1354
sS'Matabeleland North'
p2804
g17
sS'Constanta'
p2805
g106
sS'East Sussex'
p2806
S'E2'
p2807
sS'North-West'
p2808
g115
sS'Banbridge'
p2809
S'R2'
p2810
sS'Corum'
p2811
g100
sS'Bogomila'
p2812
g202
sS'Khabarovsk'
p2813
g277
sS'Nunavut'
p2814
S'NU'
p2815
sS"Provence-Alpes-Cote d'Azur"
p2816
g338
sS'Kurunegala'
p2817
g44
sS'Cargados Carajos'
p2818
g155
sS'Rizal'
p2819
g324
sS'Telsiu Apskritis'
p2820
g1354
sS'Novaci'
p2821
g957
sS'Callao'
p2822
g193
sS"K'ut'aisi"
p2823
g87
sS'Ningxia'
p2824
g50
sS'Dzavhan'
p2825
g202
sS'Nawoiy'
p2826
g193
sS'Kasese'
p2827
g169
sS'Klecevce'
p2828
g112
sS'Moskva'
p2829
g191
sS'Suournes'
p2830
g437
sS'Gorontalo'
p2831
g1056
sS'Gwynedd'
p2832
S'Y2'
p2833
sS'Vardak'
p2834
g227
sS'Khios'
p2835
g20
sS'Kosel'
p2836
g20
sS'Abruzzi'
p2837
g71
sS'Zaqatala'
p2838
g85
sS'Galicia'
p2839
g147
sS'West End'
p2840
g193
sS'Terengganu'
p2841
g48
sS'Leraba'
p2842
g134
sS'Cimislia'
p2843
g667
sS'Misamis Occidental'
p2844
g491
sS'Baiti'
p2845
g54
sS'Crnomelj'
p2846
g11
sS'Batna'
p2847
g74
sS'Aveiro'
p2848
g7
sS'Cortes'
p2849
g17
sS'Rezeknes'
p2850
g80
sS'Villa Clara'
p2851
g33
sS'Colorado'
p2852
S'CO'
p2853
sS'Negros Oriental'
p2854
g15
sS'Adrar'
p2855
g1056
sS'Knowsley'
p2856
S'G9'
p2857
sS'Ascension'
p2858
g71
sS'Zou'
p2859
g27
sS'Tula'
p2860
g978
sS'Ash Sharqiyah'
p2861
g106
sS'Vipava'
p2862
g2055
sS'Amman'
p2863
g33
sS'Jogevamaa'
p2864
g54
sS'Maio'
p2865
g42
sS'Sopron'
p2866
g1056
sS'Hormozgan'
p2867
g115
sS'Louangphrabang'
p2868
g11
sS'Okinawa'
p2869
g191
sS'Yatenga'
p2870
g978
sS'Iloilo'
p2871
g277
sS'Sergipe'
p2872
g797
sS'Kitgum'
p2873
g299
sS'Benue'
p2874
g468
sS'Hamgyong-namdo'
p2875
g74
sS'Labunista'
p2876
g147
sS'Nova Gorica'
p2877
g299
sS'Himachal Pradesh'
p2878
g115
sS'Golestan'
p2879
g177
sS'Farghona'
p2880
g74
sS'Nueva Esparta'
p2881
g11
sS'Constantine'
p2882
g42
sS'Chiriqui'
p2883
g7
sS'Messinia'
p2884
g169
sS'Lukovica'
p2885
g667
sS'Ibaraki'
p2886
g106
sS'Antioquia'
p2887
g7
sS'Moquegua'
p2888
g27
sS'Guainia'
p2889
g446
sS'Krivogastani'
p2890
g324
sS'Sorsogon'
p2891
g147
sS'Pernik'
p2892
g358
sS'Choco'
p2893
g115
sS'Ilia'
p2894
g306
sS'Kyongsang-bukto'
p2895
g106
sS'Thua Thien'
p2896
g1274
sS'Paphos'
p2897
g17
sS'Tolna'
p2898
g50
sS'Formosa'
p2899
g202
sS'Korce'
p2900
g15
sS'Bushehr'
p2901
g155
sS'Kon Tum'
p2902
g1354
sS'Moyen-Cavally'
p2903
g299
sS'Kansas'
p2904
S'KS'
p2905
sS'Orellana'
p2906
g80
sS'Lentekhis Raioni'
p2907
g1056
sS'Scottish Borders, The'
p2908
S'T9'
p2909
sS'Comunidad Valenciana'
p2910
g232
sS'Puno'
p2911
g50
sS'El Seibo'
p2912
g797
sS'Takamaka'
p2913
g103
sS'Guizhou'
p2914
g27
sS'Wirral'
p2915
S'Q1'
p2916
sS'Khorazm'
p2917
g54
sS'Zanzibar Central'
p2918
g50
sS'Sikasso'
p2919
g17
sS'Bougouriba'
p2920
g240
sS'Ogooue-Ivindo'
p2921
g17
sS"Ch'ungch'ong-namdo"
p2922
g11
sS'Chagang-do'
p2923
g71
sS'San Juan'
p2924
g27
sS'Caroni'
p2925
g7
sS'Shirak'
p2926
g193
sS'Ismayilli'
p2927
g733
sS'Krasnodar'
p2928
g58
sS'Biombo'
p2929
g44
sS'Zufar'
p2930
g5
sS'Famagusta'
p2931
g71
sS'Irkutsk'
p2932
g279
sS'Rakai'
p2933
g134
sS'Tay Ninh'
p2934
g345
sS'Kamwenge'
p2935
g52
sS'Berlin'
p2936
g33
sS'Virgin Islands'
p2937
S'VI'
p2938
sS'Leeds'
p2939
g521
sS'Uaboe'
p2940
g48
sS'Vasterbottens Lan'
p2941
g103
sS'Kaluga'
p2942
g733
sS'Aginsky Buryatsky AO'
p2943
g7
sS'Northumberland'
p2944
S'J6'
p2945
sS'Vale of Glamorgan, The'
p2946
S'Z3'
p2947
sS'Marahoue'
p2948
g198
sS'Pader'
p2949
g1132
sS'Nuwara Eliya'
p2950
g11
sS'Swakopmund'
p2951
g11
sS'Krusevo'
p2952
g56
sS'Lacin'
p2953
g797
sS'Dubreka'
p2954
g87
sS'Sud-Bandama'
p2955
g622
sS'Samtrediis Raioni'
p2956
g240
sS'Phichit'
p2957
g48
sS'Mbomou'
p2958
g5
sS'Anabar'
p2959
g7
sS'Durazno'
p2960
g54
sS'American Samoa'
p2961
S'AS'
p2962
sS'New Mexico'
p2963
S'NM'
p2964
sS'Granada'
p2965
g17
sS'Kebili'
p2966
g87
sS'Tlaxcala'
p2967
g354
sS'Al Qunaytirah'
p2968
g74
sS'La Massana'
p2969
g42
sS'Skane Lan'
p2970
g227
sS"Kharkivs'ka Oblast'"
p2971
g193
sS'Karan State'
p2972
g54
sS'Orientale'
p2973
g202
sS'Santiago del Estero'
p2974
g155
sS'Lorestan'
p2975
g103
sS'Ptuj'
p2976
S'K7'
p2977
sS'Hereroland Oos'
p2978
g103
sS'Ninh Binh'
p2979
g405
sS'Portsmouth'
p2980
S'K6'
p2981
sS'Songkhla'
p2982
g667
sS'Kavango'
p2983
g733
sS'Republika Srpska'
p2984
g7
sS'Sucumbios'
p2985
g155
sS'Pallisa'
p2986
g232
sS'Perak'
p2987
g193
sS'Saki'
p2988
g191
sS'South-East'
p2989
g202
sS"Grand' Anse"
p2990
g106
sS'Pattani'
p2991
g63
sS'Mogila'
p2992
g405
sS'Pemagatsel'
p2993
g106
sS'Stann Creek'
p2994
g54
sS'Cauca'
p2995
g202
sS'Zugdidi'
p2996
g1354
sS'Preilu'
p2997
g155
sS'Inagua'
p2998
g48
sS'Chhukha'
p2999
g17
sS'Ain Defla'
p3000
g249
sS'Ngozi'
p3001
g100
sS'Soum'
p3002
g169
sS'Karas'
p3003
g87
sS'Longford'
p3004
g27
sS'Entre Rios'
p3005
g5
sS'Izvor'
p3006
g177
sS'El Paraiso'
p3007
g193
sS'Emilia-Romagna'
p3008
g54
sS'Radlje ob Dravi'
p3009
g749
sS'Al Aziziyah'
p3010
g74
sS'Sulu'
p3011
g232
sS'Rapti'
p3012
g44
sS'Sverdlovsk'
p3013
g957
sS'Lagos'
p3014
g54
sS"Khersons'ka Oblast'"
p3015
g5
sS'Kanchanaburi'
p3016
g20
sS'Mayo'
p3017
g279
sS'Ig'
p3018
g177
sS'Oslo'
p3019
g44
sS'Qachas Nek'
p3020
g11
sS'Varmlands Lan'
p3021
g155
sS'Telemark'
p3022
g11
sS'Santa Rosa'
p3023
g27
sS'Enfield'
p3024
g1479
sS'Vastmanlands Lan'
p3025
g733
sS'Madonas'
p3026
g279
sS'Ben Tre'
p3027
g74
sS'Chubut'
p3028
g42
sS'Lop Buri'
p3029
g1056
sS'Bingol'
p3030
g44
sS'Vaupes'
p3031
g277
sS'Khulna'
p3032
g143
sS'Toliara'
p3033
g17
sS'Tavush'
p3034
g202
sS'Pohnpei'
p3035
g7
sS'Giresun'
p3036
g797
sS'Moyle'
p3037
S'S8'
p3038
sS'Savannakhet'
p3039
g67
sS'Azarbayjan-e Bakhtari'
p3040
g71
sS'Brava'
p3041
g7
sS'Sentjur pri Celju'
p3042
g551
sS'Fresh Creek'
p3043
g468
sS'Podlaskie'
p3044
g52
sS'Sitrah'
p3045
g17
sS'Kensington and Chelsea'
p3046
g2115
sS'Mara'
p3047
g5
sS'Baoruco'
p3048
g7
sS'Luderitz'
p3049
g202
sS'Fujairah'
p3050
g42
sS'Domzale'
p3051
g389
sS'Atakora'
p3052
g5
sS'Denbighshire'
p3053
S'X9'
p3054
sS'Grand Port'
p3055
g106
sS'Vaslui'
p3056
g58
sS'Al Qalyubiyah'
p3057
g44
sS'Khania'
p3058
g437
sS'Chatham Islands'
p3059
g67
sS'Federated States of Micronesia'
p3060
S'FM'
p3061
sS'Chalatenango'
p3062
g74
sS'Ruggell'
p3063
g17
sS"Hrodzyenskaya Voblasts'"
p3064
g74
sS'Lambayeque'
p3065
g106
sS'Ilfov'
p3066
g437
sS'Fuzuli'
p3067
g27
sS'San Jose'
p3068
g33
sS'Cojedes'
p3069
g5
sS'Davao City'
p3070
g40
sS'Oulu'
p3071
g5
sS'Pahang'
p3072
g17
sS'Bjelovarsko-Bilogorska'
p3073
g71
sS'Palayan'
p3074
g559
sS'Capari'
p3075
g106
sS'Hwanghae-namdo'
p3076
g17
sS'Cumbria'
p3077
S'C9'
p3078
sS'Jijel'
p3079
g80
sS'Trikala'
p3080
g155
sS'Guangdong'
p3081
g277
sS'West Coast'
p3082
g145
sS'Vientiane'
p3083
g115
sS'Cartago'
p3084
g7
sS'Zelenikovo'
p3085
g1238
sS'Lambeth'
p3086
S'H1'
p3087
sS'Sao Vicente'
p3088
g115
sS'Arkansas'
p3089
S'AR'
p3090
sS'Ljubljana'
p3091
g134
sS'Bago'
p3092
g1925
sS'Store'
p3093
g3078
sS'Northern Mariana Islands'
p3094
S'MP'
p3095
sS'Acquaviva'
p3096
g71
sS'Aakk,r'
p3097
g67
sS'Siauliu Apskritis'
p3098
g134
sS'Assam'
p3099
g74
sS'Santa Cruz'
p3100
g279
sS'Lebap'
p3101
g42
sS'Vaud'
p3102
g103
sS'Bihor'
p3103
g54
sS'Pwani'
p3104
g7
sS'Krsko'
p3105
g56
sS'Anambra'
p3106
g733
sS'Vinica'
p3107
g843
sS'West Lothian'
p3108
S'W9'
p3109
sS'Nagykanizsa'
p3110
g13
sS'Zabol'
p3111
g797
sS'Pais Vasco'
p3112
g374
sS'Tunis'
p3113
g356
sS'Omaruru'
p3114
g44
sS"Homyel'skaya Voblasts'"
p3115
g7
sS'Baie Sainte Anne'
p3116
g193
sS'Hajjah'
p3117
g155
sS'Kairouan'
p3118
g74
sS'Ouham'
p3119
g44
sS'Al Mintaqah al Gharbiyah'
p3120
g5
sS'Leyte'
p3121
g177
sS'Sabaragamuwa'
p3122
g345
sS'Taza-Al Hoceima-Taounate'
p3123
g147
sS'Carabobo'
p3124
g193
sS'Est'
p3125
g115
sS'Yamal-Nenets'
p3126
g82
sS'Ciego de Avila'
p3127
g193
sS'Phetchaburi'
p3128
g60
sS'Samara'
p3129
g416
sS'Maria Trinidad Sanchez'
p3130
g106
sS'Akhalgoris Raioni'
p3131
g54
sS'Lac'
p3132
g193
sS'Ankara'
p3133
g667
sS'Colon'
p3134
g74
sS'Adjumani'
p3135
g416
sS'Nordur-Tingeyjarsysla'
p3136
g50
sS'Gauteng'
p3137
g17
sS'Vladimir'
p3138
g198
sS'Al Madinah'
p3139
g54
sS'Badghis'
p3140
g7
sS"Vayots' Dzor"
p3141
g67
sS'Chon Buri'
p3142
g15
sS'Plymouth'
p3143
S'K4'
p3144
sS'Guera'
p3145
g54
sS'Upper Nile'
p3146
g249
sS'Holguin'
p3147
g44
sS'Puconci'
p3148
g216
sS'Noonu'
p3149
g437
sS'Ekiti'
p3150
g56
sS'Korinthia'
p3151
g177
sS'Tozeur'
p3152
g249
sS'Kanungu'
p3153
g143
sS'Kemps Bay'
p3154
g277
sS'Qinghai'
p3155
g17
sS'Suhbaatar'
p3156
g11
sS'Jharkhand'
p3157
g58
sS'Samdrup'
p3158
g11
sS'Marinduque'
p3159
g58
sS'Tottori'
p3160
g9
sS'Kinshasa'
p3161
g17
sS'Luapula'
p3162
g42
sS'Ocotepeque'
p3163
g106
sS'Mazandaran'
p3164
g249
sS'Medvode'
p3165
g957
sS'Rezekne'
p3166
g103
sS'Schaffhausen'
p3167
g33
sS'Rochdale'
p3168
S'L2'
p3169
sS'Ad Dawhah'
p3170
g71
sS'Zanzibar North'
p3171
g155
sS'Surigao del Norte'
p3172
g134
sS'Agsu'
p3173
g17
sS'Ostergotlands Lan'
p3174
g33
sS'Khalkidhiki'
p3175
g446
sS'Khanty-Mansiy'
p3176
g13
sS'Newtownabbey'
p3177
S'T1'
p3178
sS'Manabi'
p3179
g106
sS'Oshikoto'
p3180
g58
sS'Sachsen-Anhalt'
p3181
g106
sS'Luton'
p3182
S'I1'
p3183
sS'Angus'
p3184
S'T7'
p3185
sS'Daugavpils'
p3186
g193
sS'Alaska'
p3187
S'AK'
p3188
sS'Nugaal'
p3189
g115
sS'Komi'
p3190
g1056
sS'Morazan'
p3191
g5
sS'Singerei'
p3192
g403
sS'Taymyr'
p3193
g1274
sS'Faafu '
p3194
g345
sS'Biskra'
p3195
g100
sS'Macau'
p3196
g7
sS'Hartlepool'
p3197
S'F5'
p3198
sS'Drochia'
p3199
g957
sS'Vidin'
p3200
g1354
sS'Parana'
p3201
g27
sS'Castlereagh'
p3202
S'R5'
p3203
sS'Chechnya'
p3204
g44
sS'Zala'
p3205
g80
sS'Trabzon'
p3206
g134
sS'Hammersmith and Fulham'
p3207
g751
sS'Risaralda'
p3208
g80
sS'Bristol, City of'
p3209
g1629
sS'Aragua'
p3210
g42
sS'Bushenyi'
p3211
g354
sS'Plaines Wilhems'
p3212
g11
sS'Oudomxai'
p3213
g193
sS'Madinat ach Shamal'
p3214
g5
sS'Moyen-Ogooue'
p3215
g74
sS'San Luis Potosi'
p3216
g80
sS'San Fernando'
p3217
g67
sS'Soufriere'
p3218
g202
sS'Medway'
p3219
g2269
sS'Moravskoslezsky kraj'
p3220
g403
sS"Dushet'is Raioni"
p3221
g100
sS'Janakpur'
p3222
g54
sS'Sughd'
p3223
g74
sS'Oum el Bouaghi'
p3224
g354
sS'Ruse'
p3225
g324
sS'Selenge'
p3226
g33
sS'Vrutok'
p3227
g523
sS'Sao Miguel'
p3228
g100
sS'Houaphan'
p3229
g74
sS'Dolj'
p3230
g11
sS'Ticino'
p3231
g279
sS'Tenasserim'
p3232
g44
sS'Dedza'
p3233
g17
sS'Kirklees'
p3234
g1938
sS'Richmond upon Thames'
p3235
g654
sS'Limon'
p3236
g17
sS'New Providence'
p3237
g103
sS'Podkarpackie'
p3238
g620
sS'Siyazan'
p3239
g324
sS'Kriva Palanka'
p3240
g163
sS'Tafea'
p3241
g446
sS'Legaspi'
p3242
g108
sS'Tov'
p3243
g27
sS'Salamat'
p3244
g48
sS'Jekabpils'
p3245
g67
sS'Ballymena'
p3246
S'Q9'
p3247
sS'Conwy'
p3248
S'X8'
p3249
sS'Bedfordshire'
p3250
g247
sS'North-East'
p3251
g5
sS'Canarias'
p3252
g324
sS'Tashigang'
p3253
g100
sS'Luanda'
p3254
g279
sS'Jarash'
p3255
g155
sS'Johor'
p3256
g71
sS'Zugdidis Raioni'
p3257
g674
sS"Zestap'onis Raioni"
p3258
g65
sS'Mauren'
p3259
g42
sS'Bolu'
p3260
g106
sS'Petrovec'
p3261
g294
sS"Umm Sa'id"
p3262
g44
sS'Shanghai'
p3263
g103
sS'Stefan-Voda'
p3264
g622
sS'Oita'
p3265
g277
sS'Al Batinah'
p3266
g7
sS'Shropshire'
p3267
S'L6'
p3268
sS'Duzce'
p3269
g267
sS'Oran'
p3270
g202
sS'Yerevan'
p3271
g115
sS'Al Karak'
p3272
g202
sS'Butare'
p3273
g71
sS'Phetchabun'
p3274
g106
sS'North-West Frontier'
p3275
g74
sS'Stake Bay'
p3276
g17
sS'Awdal'
p3277
g50
sS'Ivanovo'
p3278
g50
sS'Yamanashi'
p3279
g15
sS'Saaremaa'
p3280
g106
sS'Christ Church'
p3281
g71
sS'Srbinovo'
p3282
g629
sS'Nord'
p3283
g202
sS'Mbarara'
p3284
g163
sS'Taejon-jikhalsi'
p3285
g100
sS'Chahar Mahall va Bakhtiari'
p3286
g74
sS'Drugovo'
p3287
g277
sS'La Guajira'
p3288
g11
sS'Madhya Pradesh'
p3289
g249
sS'Kouritenga'
p3290
g797
sS'Zhambyl'
p3291
g11
sS'Jidd Hafs'
p3292
g54
sS'Cerkno'
p3293
g106
sS'Norourland Vestra'
p3294
g9
sS'Thesprotia'
p3295
g27
sS'Al Wadi al Jadid'
p3296
g48
sS'Oaxaca'
p3297
g279
sS'Amparai'
p3298
g71
sS'Saint Michael'
p3299
g5
sS'Tiris Zemmour'
p3300
g115
sS'Mexico'
p3301
g446
sS'Southland'
p3302
g1185
sS'Kachin State'
p3303
g42
sS'Lodzkie'
p3304
g1274
sS'Cuyuni-Mazaruni'
p3305
g115
sS'Ganca'
p3306
g279
sS'Straseni'
p3307
g501
sS'Govisumber'
p3308
g80
sS'Tagant'
p3309
g202
sS'Cordillera'
p3310
g5
sS'Pernambuco'
p3311
g277
sS'Rheinland-Pfalz'
p3312
g5
sS'Orebro Lan'
p3313
g446
sS'Diyala'
p3314
g67
sS'Jizzakh'
p3315
g42
sS'Sulawesi Tengah'
p3316
g50
sS'Logone Oriental'
p3317
g202
sS'Hamburg'
p3318
g42
sS'Gumma'
p3319
g67
sS'Nazarje'
p3320
g198
sS'Burgas'
p3321
g306
sS'Calbayog'
p3322
g2073
sS'Bournemouth'
p3323
g420
sS'Erd'
p3324
g437
sS"Ch'khorotsqus Raioni"
p3325
g446
sS'Brezice'
p3326
g5
sS'Siliana'
p3327
g155
sS'Raa'
p3328
g138
sS'Sanaag'
p3329
g44
sS'North Cotabato'
p3330
g209
sS'Mandaue'
p3331
g371
sS'Sipkovica'
p3332
g845
sS'Bartin'
p3333
g82
sS'Preah Vihear'
p3334
g48
sS'Toshkent'
p3335
g48
sS'Okahandja'
p3336
g115
sS'Mus'
p3337
g358
sS'Harare'
p3338
g67
sS'Loreto'
p3339
g33
sS'Cavan'
p3340
g7
sS'Kamenjane'
p3341
g306
sS'An Nuqat al Khams'
p3342
g35
sS'Dravograd'
p3343
g733
sS'Xacmaz'
p3344
g232
sS'West-Vlaanderen'
p3345
g202
sS'Reading'
p3346
g2977
sS'Menges'
p3347
g236
sS'Zanzan'
p3348
g1132
sS'Vitoliste'
p3349
g439
sS'Vestur-Hunavatnssysla'
p3350
g249
sS'Yukon Territory'
p3351
S'YT'
p3352
sS'Stip'
p3353
g1121
sS'Jelgava'
p3354
g115
sS'Albay'
p3355
g54
sS'Andhra Pradesh'
p3356
g7
sS'Kocaeli'
p3357
g9
sS'Papua'
p3358
g356
sS'Mali'
p3359
g155
sS'Bas-Congo'
p3360
g5
sS'Chaiyaphum'
p3361
g468
sS'Uthai Thani'
p3362
g446
sS'Khanh Hoa'
p3363
g65
sS'Beja'
p3364
g74
sS'Gaafu Dhaalu'
p3365
g249
sS'Hidalgo'
p3366
g48
sS'Redonda'
p3367
g202
sS'Mendoza'
p3368
g48
sS'Oklahoma'
p3369
S'OK'
p3370
sS'Gagauzia'
p3371
g35
sS'Goris Raioni'
p3372
g155
sS'Gueckedou'
p3373
g48
sS'Imo'
p3374
g797
sS'Dien Bien'
p3375
g1132
sS'Black River'
p3376
g44
sS'Idrija'
p3377
g356
sS'Tongatapu'
p3378
g7
sS'Mato Grosso'
p3379
g106
sS'Chuvashia'
p3380
g33
sS'Daskasan'
p3381
g33
sS'Inhambane'
p3382
g74
sS'Delta'
p3383
g356
sS'Kosrae'
p3384
g71
sS'Dalaba'
p3385
g17
sS'Wangdi Phodrang'
p3386
g155
sS'Boumerdes'
p3387
g169
sS'Stockport'
p3388
S'N2'
p3389
sS'Lancashire'
p3390
g1465
sS'Haute-Normandie'
p3391
g677
sS'Ilirska Bistrica'
p3392
g58
sS'Lumbini'
p3393
g5
sS'Limerick'
p3394
g33
sS'Babil'
p3395
g17
sS'Starse'
p3396
g296
sS'Mon State'
p3397
g48
sS'Wandsworth'
p3398
S'P1'
p3399
sS'Relizane'
p3400
g35
sS'Phatthalung'
p3401
g1420
sS'Las Tunas'
p3402
g48
sS'Nyanza'
p3403
g193
sS'Edinet'
p3404
g24
sS'Renfrewshire'
p3405
S'W2'
p3406
sS'Goa'
p3407
g345
sS"Ha'il"
p3408
g48
sS'Tarija'
p3409
g202
sS'Romblon'
p3410
g56
sS'Madang'
p3411
g44
sS'Pivka'
p3412
g845
sS'Northern Samar'
p3413
g405
sS'Corrientes'
p3414
g17
sS'Haut-Ogooue'
p3415
g7
sS'Sibiu'
p3416
g345
sS'San Salvador and Rum Cay'
p3417
g249
sS'Tovuz'
p3418
g147
sS'South Carolina'
p3419
S'SC'
p3420
sS'Mahakali'
p3421
g202
sS'Commewijne'
p3422
g115
sS'Coventry'
p3423
g541
sS'Haut-Sassandra'
p3424
g620
sS'Kentucky'
p3425
S'KY'
p3426
sS'Tartumaa'
p3427
g27
sS'Rabat-Sale-Zemmour-Zaer'
p3428
g358
sS'Iganga'
p3429
g314
sS'Koryak'
p3430
g356
sS'Badulla'
p3431
g74
sS'Tiaret'
p3432
g48
sS'Davao del Sur'
p3433
g733
sS'Narino'
p3434
g279
sS'Wexford'
p3435
g277
sS'Taizz'
p3436
g11
sS'Faryab'
p3437
g193
sS'Junin'
p3438
g44
sS'Veneto'
p3439
g279
sS'Magwe'
p3440
g193
sS'Anse Royale'
p3441
g54
sS'Malakula'
p3442
g67
sS"Zabaykal'skiy Kray"
p3443
g267
sS'Kobilje'
p3444
g191
sS'Satun'
p3445
g405
sS'Abu Dhabi'
p3446
g71
sS'Cerklje na Gorenjskem'
p3447
g44
sS'Dalarnas Lan'
p3448
g67
sS'Seenu'
p3449
g71
sS'Karabuk'
p3450
g501
sS'Liepaja'
p3451
g33
sS'Bahr al Ghazal'
p3452
g13
sS'Sagaing'
p3453
g67
sS'Rayong'
p3454
g191
sS'Navarra'
p3455
g13
sS'Bern'
p3456
g54
sS'Idlib'
p3457
g44
sS'Otjiwarongo'
p3458
g48
sS'Denigomodu'
p3459
g5
sS'Novgorod'
p3460
g163
sS'Niari'
p3461
g193
sS'Kandahar'
p3462
g103
sS'Hambantota'
p3463
g193
sS'Coahuila de Zaragoza'
p3464
g193
sS'Riviere du Rempart'
p3465
g100
sS'Agdam'
p3466
g74
sS'Estuaire'
p3467
g71
sS'Al Qasim'
p3468
g5
sS'Rize'
p3469
g324
sS'Mohales Hoek'
p3470
g446
sS'Agdas'
p3471
g42
sS'Northern Cape'
p3472
g5
sS'Klaipedos Apskritis'
p3473
g147
sS'Para'
p3474
g33
sS'Huanuco'
p3475
g67
sS'Oregon'
p3476
S'OR'
p3477
sS'Bulgan'
p3478
g50
sS'Ishikawa'
p3479
g446
sS'Basel-Stadt'
p3480
g42
sS'Tehran'
p3481
g468
sS'High Rock'
p3482
g354
sS'Southampton'
p3483
g67
sS'Apure'
p3484
g74
sS'Irian Jaya Barat'
p3485
g306
sS"P'yongan-namdo"
p3486
g446
sS'Nkhata Bay'
p3487
g11
sS'Valgamaa'
p3488
g100
sS'Hung Yen'
p3489
g52
sS'Tarrafal'
p3490
g279
sS'Xizi'
p3491
g1354
sS'Kapisa'
p3492
g106
sS'Pest'
p3493
g33
sS'Trujillo'
p3494
g50
sS'Demir Kapija'
p3495
g733
sS'Aberdeen City'
p3496
S'T5'
p3497
sS'Sofiya'
p3498
g147
sS'Ubon Ratchathani'
p3499
g957
sS'Clackmannanshire'
p3500
S'U1'
p3501
sS'Panama'
p3502
g5
sS'Chachoengsao'
p3503
g138
sS'Barking and Dagenham'
p3504
g244
sS'Wasit'
p3505
g33
sS'Umbria'
p3506
g27
sS'Batangas'
p3507
g202
sS'Paktia'
p3508
g356
sS'California'
p3509
S'CA'
p3510
sS'Vratsa'
p3511
g674
sS'Rajasthan'
p3512
g80
sS'Littoral'
p3513
g106
sS'Nickerie'
p3514
g106
sS'Potosi'
p3515
g193
sS'Awbari'
p3516
g163
sS'Cotopaxi'
p3517
g193
sS'Agadez'
p3518
g71
sS'Namaland'
p3519
g227
sS'Sing Buri'
p3520
g345
sS'Tra Vinh'
p3521
g77
sS'Ratanakiri Kiri'
p3522
g446
sS'Quang Tri'
p3523
g236
sS'Aracinovo'
p3524
g71
sS'Gurjaanis Raioni'
p3525
g103
sS'Canillo'
p3526
g7
sS'Vranestica'
p3527
g772
sS'Hato Mayor'
p3528
g354
sS'Saint David'
p3529
g193
sS'Triesen'
p3530
g202
sS'Hokkaido'
p3531
g44
sS"Ch'ungch'ong-bukto"
p3532
g54
sS'Boesmanland'
p3533
g74
sS'Fermanagh'
p3534
S'S2'
p3535
sS'Blagoevgrad'
p3536
g58
sS'Colonia'
p3537
g42
sS'Levkas'
p3538
g468
sS'Chiba'
p3539
g42
sS'Ambrolauris Raioni'
p3540
g202
sS'Razgrad'
p3541
g163
sS'Stredocesky kraj'
p3542
g622
sS'Dikhil'
p3543
g17
sS'Presidente Hayes'
p3544
g33
sS'Pskov'
p3545
g232
sS'Upper West'
p3546
g115
sS'Masindi'
p3547
g20
sS'Wielkopolskie'
p3548
g281
sS'Rotuma'
p3549
g42
sS'Cluj'
p3550
g48
sS'Vermont'
p3551
S'VT'
p3552
sS'Al Manamah'
p3553
g7
sS'Riscani'
p3554
g299
sS'North Solomons'
p3555
g193
sS'Huambo'
p3556
g5
sS'Star Dojran'
p3557
S'96'
p3558
sS'Nordur-Mulasysla'
p3559
g279
sS'Ahuachapan'
p3560
g71
sS'Samar'
p3561
g513
sS'Zachodniopomorskie'
p3562
g82
sS'Bolnisis Raioni'
p3563
g44
sS'Rivera'
p3564
g48
sS'Iasi'
p3565
g103
sS'Izmir'
p3566
g249
sS'Henan'
p3567
g202
sS'Ain Temouchent'
p3568
g356
sS'Takeo'
p3569
g100
sS'Ar Rifa'
p3570
g48
sS'Zagrebacka'
p3571
g279
sS'Krym'
p3572
g115
sS'Gnaviyani'
p3573
g491
sS'Luzern'
p3574
g115
sS'Qaraghandy'
p3575
g44
sS'West Bengal'
p3576
g797
sS'Roi Et'
p3577
g733
sS'Kozani'
p3578
g115
sS'Cheju-do'
p3579
g71
sS"Perm'"
p3580
g147
sS'Qazbegis Raioni'
p3581
g437
sS'Blatec'
p3582
g193
sS'Arad'
p3583
g7
sS'Zelaya'
p3584
g33
sS'Dhamar'
p3585
g115
sS'Milton Keynes'
p3586
g1704
sS'Piaui'
p3587
g279
sS'Waltham Forest'
p3588
S'O9'
p3589
sS'Ucayali'
p3590
g733
sS'Mascara'
p3591
g468
sS'Al Wahadah State'
p3592
g169
sS'West Bank'
p3593
S'WE'
p3594
sS'Postojna'
p3595
g629
sS'Davaci'
p3596
g11
sS'Huancavelica'
p3597
g202
sS'Vava'
p3598
g74
sS'Hodh Ech Chargui'
p3599
g71
sS'Koper-Capodistria'
p3600
g20
sS'Florina'
p3601
g5
sS'Sligo'
p3602
g733
sS"Zaporiz'ka Oblast'"
p3603
g468
sS'Flanders'
p3604
g48
sS'Pamplemousses'
p3605
g33
sS"Ash Shati'"
p3606
g48
sS'Imbabura'
p3607
g115
sS'Worcestershire'
p3608
S'Q4'
p3609
sS'Ha Nam'
p3610
g620
sS'Pavlodar'
p3611
g115
sS'Massachusetts'
p3612
S'MA'
p3613
sS'Penama'
p3614
g11
sS'Carazo'
p3615
g7
sS'Mayo-Kebbi'
p3616
g67
sS'Moxico'
p3617
g106
sS'Dudley'
p3618
S'D7'
p3619
sS'Laborie'
p3620
g193
sS'Mambere-Kadei'
p3621
g42
sS'Kayah State'
p3622
g17
sS'Gilan'
p3623
g5
sS'Lucena'
p3624
g3619
sS'Epi'
p3625
g202
sS'Hamadan'
p3626
g202
sS'Nabatiye'
p3627
g193
sS'Free State'
p3628
g74
sS'Armed Forces Pacific'
p3629
S'AP'
p3630
sS'Midland'
p3631
g74
sS'Hertford'
p3632
g1185
sS'Swietokrzyskie'
p3633
g299
sS'Jakarta Raya'
p3634
g42
sS'Najin Sonbong-si'
p3635
g27
sS'Gaga'
p3636
g54
sS'Govi-Altay'
p3637
g67
sS'Lowgar'
p3638
g11
sS'Francisco Morazan'
p3639
g5
sS'Mecklenburg-Vorpommern'
p3640
g44
sS'Licko-Senjska'
p3641
g5
sS'Grande Comore'
p3642
g7
sS'Quindio'
p3643
g103
sS'General Santos'
p3644
g238
sS'Shkoder'
p3645
g358
sS'Soroca'
p3646
g82
sS'Midi-Pyrenees'
p3647
g2073
sS'Sutton'
p3648
S'N8'
p3649
sS'Anse Etoile'
p3650
g74
sS'Ilocos Sur'
p3651
g354
sS'Namentenga'
p3652
g674
sS'Yevrey'
p3653
g501
sS'Rumphi'
p3654
g50
sS'Annaba'
p3655
g177
sS'Alto Parana'
p3656
g71
sS'North Ayrshire'
p3657
S'V7'
p3658
sS'Okayama'
p3659
g87
sS'Leon'
p3660
g5
sS'Thai Binh'
p3661
g249
sS'Nong Khai'
p3662
g11
sS'Markazi'
p3663
g1056
sS'Elbasan'
p3664
g437
sS'Slovenj Gradec'
p3665
g1238
sS'Mandalay'
p3666
g5
sS'Ica'
p3667
g115
sS'Hampshire'
p3668
g98
sS'Zadarska'
p3669
g100
sS'Kurdufan'
p3670
g1056
sS'Acre'
p3671
g71
sS'Ad Dakhiliyah'
p3672
g71
sS'Phuket'
p3673
g65
sS'Miravci'
p3674
g1420
sS'Tandjile'
p3675
g106
sS'Sisaket'
p3676
g277
sS'Kouffo'
p3677
g44
sS'Caprivi Oos'
p3678
g7
sS'Glacis'
p3679
g44
sS'Western Area'
p3680
g42
sS'North Ossetia'
p3681
g667
sS'Ialomita'
p3682
g155
sS'Cao Bang'
p3683
g54
sS'Laguna'
p3684
g345
sS'Tucuman'
p3685
g80
sS'Son La'
p3686
g13
sS'Houet'
p3687
g35
sS'Liepajas'
p3688
g11
sS'Tongsa'
p3689
g50
sS'Ioba'
p3690
g163
sS'Xocavand'
p3691
g416
sS'Banjul'
p3692
g71
sS'Kanal'
p3693
g138
sS'Fes-Boulemane'
p3694
g15
sS'Mudug'
p3695
g67
sS'Amran'
p3696
g100
sS'Lai Chau'
p3697
g501
sS'Litoral'
p3698
g5
sS'Phalombe'
p3699
g277
sS'Dire Dawa'
p3700
g240
sS'Nampula'
p3701
g17
sS'Friesland'
p3702
g7
sS'Chanthaburi'
p3703
g240
sS'Lara'
p3704
g48
sS'Al Jizah'
p3705
g5
sS"Janub Sina'"
p3706
g468
sS'Sistan va Baluchestan'
p3707
g42
sS'Mae Hong Son'
p3708
g71
sS'Sillamae'
p3709
g446
sS'North Bank'
p3710
g193
sS'Nsanje'
p3711
g100
sS'Kirundo'
p3712
g33
sS'Monagas'
p3713
g33
sS'Koundara'
p3714
g27
sS'Phu Yen'
p3715
g63
sS'Kirklareli'
p3716
g306
sS'Yobe'
p3717
g138
sS'Nord-Ouest'
p3718
g74
sS'Qobustan'
p3719
g9
sS'Arunachal Pradesh'
p3720
g277
sS'South Australia'
p3721
g54
sS'Charlotte'
p3722
g71
sS'Lapland'
p3723
g17
sS'Murzuq'
p3724
g277
sS'Kompienga'
p3725
g209
sS'Halab'
p3726
g202
sS'Varazdinska'
p3727
g33
sS'Guerrero'
p3728
g44
sS'Valcea'
p3729
g306
sS'Sultan Kudarat'
p3730
g957
sS'Rhone-Alpes'
p3731
g523
sS'Maryland'
p3732
S'MD'
p3733
sS'Quetzaltenango'
p3734
g48
sS'Cordoba'
p3735
g54
sS'Dumaguete'
p3736
g707
sS'Ang Thong'
p3737
g249
sS'Cunene'
p3738
g193
sS'Chimborazo'
p3739
g17
sS'Lasko'
p3740
g209
sS'Rodhopi'
p3741
g7
sS'Bioko Norte'
p3742
g42
sS'Ingush'
p3743
g100
sS'Otjozondjupa'
p3744
g306
sS'Amambay'
p3745
g7
sS'Arua'
p3746
g204
sS'Santiago de Cuba'
p3747
g446
sS'Copan'
p3748
g54
sS'Soc Trang'
p3749
g24
sS'Kilis'
p3750
g642
sS'Neamt'
p3751
g797
sS'Monte Cristi'
p3752
g446
sS'Veszprem'
p3753
g306
sS'Burgenland'
p3754
g71
sS'Dowa'
p3755
g193
sS'Braila'
p3756
g5
sS'Miyazaki'
p3757
g733
sS'Yangon'
p3758
g11
sS'Hovd'
p3759
g44
sS'Az Zaraqa'
p3760
g11
sS'Bukidnon'
p3761
g44
sS'Tamaulipas'
p3762
g797
sS'Gash Barka'
p3763
g42
sS'Lekoumou'
p3764
g54
sS'Greater Accra'
p3765
g71
sS'El Beni'
p3766
g74
sS'Vologda'
p3767
g403
sS'Nagaland'
p3768
g279
sS'Nusa Tenggara Timur'
p3769
g27
sS'Glasgow City'
p3770
S'V2'
p3771
sS'Lang Son'
p3772
g306
sS'Agneby'
p3773
g1274
sS"Sa'dah"
p3774
g446
sS'Dungannon'
p3775
S'S1'
p3776
sS"Ma'an"
p3777
g100
sS'Balochistan'
p3778
g7
sS'Berovo'
p3779
g42
sS'Sentjernej'
p3780
g843
sS'Totonicapan'
p3781
g50
sS'Birmingham'
p3782
g677
sS'Hwanghae-bukto'
p3783
g193
sS'Videm'
p3784
g3389
sS'Nabeul'
p3785
g100
sS'Nevada'
p3786
S'NV'
p3787
sS"Karbala'"
p3788
g44
sS'Neuchatel'
p3789
g44
sS'Northern'
p3790
g87
sS'Kerala'
p3791
g48
sS'Nei Mongol'
p3792
g279
sS'Samaxi'
p3793
g20
sS'Olomoucky kraj'
p3794
g299
sS'Lobaye'
p3795
g193
sS'Eger'
p3796
g797
sS'Sanliurfa'
p3797
g1354
sS'Santiago Rodriguez'
p3798
g468
sS'Jarvamaa'
p3799
g42
sS'Dak Lak'
p3800
g622
sS'Senakis Raioni'
p3801
g358
sS'Sembabule'
p3802
g1274
sS'Al Ahmadi'
p3803
g71
sS'Louga'
p3804
g48
sS'Gori'
p3805
g50
sS'Gorj'
p3806
g100
sS'Igdir'
p3807
g622
sS'Madanin'
p3808
g797
sS'Sikkim'
p3809
g354
sS'Friuli-Venezia Giulia'
p3810
g17
sS'Inverclyde'
p3811
S'V4'
p3812
sS'Laghman'
p3813
g249
sS'Campania'
p3814
g42
sS'Kampong Chhnang'
p3815
g74
sS'Dumyat'
p3816
g279
sS'Montserrado'
p3817
g106
sS'Sonsonate'
p3818
g48
sS'Barima-Waini'
p3819
g67
sS'Kujawsko-Pomorskie'
p3820
g24
sS'Az Zawiyah'
p3821
g324
sS"K'arelis Raioni"
p3822
g733
sS'Bumthang'
p3823
g54
sS'Wakiso'
p3824
g3558
sS'Eastern Finland'
p3825
g106
sS'Kalimantan Selatan'
p3826
g44
sS'Koprivnicko-Krizevacka'
p3827
g17
sS'Makkah'
p3828
g106
sS'Cienfuegos'
p3829
g5
sS'Yalova'
p3830
g1132
sS'Afyonkarahisar'
p3831
g74
sS'Daman and Diu'
p3832
g13
sS'Oriental'
p3833
g56
sS'Warwick'
p3834
g115
sS'Ouaddai'
p3835
g44
sS'Ratchaburi'
p3836
g163
sS'Schellenberg'
p3837
g5
sS'Adamawa'
p3838
g249
sS'Tsalkis Raioni'
p3839
g374
sS'Yardimli'
p3840
g1420
sS'Plaisance'
p3841
g100
sS'Sino'
p3842
g67
sS'Salgotarjan'
p3843
g9
sS'Kayes'
p3844
g74
sS'Ibb'
p3845
g103
sS'Az Zahirah'
p3846
g54
sS'Adan'
p3847
g7
sS'Sindh'
p3848
g54
sS'Long An'
p3849
g80
sS'Jubbada Hoose'
p3850
g202
sS'Vitanje'
p3851
g2807
sS'Devonshire'
p3852
g71
sS'Siem Reap'
p3853
g33
sS'Gabrovo'
p3854
g9
sS'Al Wusta'
p3855
g74
sS'Perlis'
p3856
g5
sS'Zavrc'
p3857
g1097
sS'Gornja Radgona'
p3858
g354
sS'Cantabria'
p3859
g306
sS'Naftalan'
p3860
g1056
sS'Darien'
p3861
g54
sS'Upper East'
p3862
g67
sS'Kalangala'
p3863
g356
sS'Ardahan'
p3864
g281
sS'Arta'
p3865
g5
sS'Studenicani'
p3866
g749
sS'Guaviare'
p3867
g106
sS'Bissau'
p3868
g115
sS'La Condamine'
p3869
g71
sS'Sezana'
p3870
g1629
sS'Sardegna'
p3871
g106
sS'Matagalpa'
p3872
g44
sS'Ungheni'
p3873
g1132
sS'Komoe'
p3874
g513
sS'Uri'
p3875
g50
sS'Bauskas'
p3876
g42
sS'Zakinthos'
p3877
g797
sS'Dosso'
p3878
g74
sS'Ebonyi'
p3879
g324
sS'Nakhon Pathom'
p3880
g324
sS'Saint Petersburg City'
p3881
g1420
sS'Managua'
p3882
g67
sS'Quang Ngai'
p3883
g957
sS'Bauchi'
p3884
g15
sS'Bamian'
p3885
g54
sS'Konar'
p3886
g1056
sS'Kepulauan Bangka Belitung'
p3887
g249
sS'Khuzestan'
p3888
g446
sS'Mangochi'
p3889
g44
sS"Akhalts'ikhis Raioni"
p3890
g193
sS'Belfast'
p3891
S'R3'
p3892
sS'Uppsala Lan'
p3893
g50
sS'Kalimantan Timur'
p3894
g106
sS'Yambol'
p3895
g416
sS'Palawan'
p3896
g358
sS'Kyustendil'
p3897
g112
sS'Sancti Spiritus'
p3898
g106
sS'Banaadir'
p3899
g7
sS'Mangghystau'
p3900
g202
sS'Centre'
p3901
g193
sS'Steiermark'
p3902
g17
sS'Catalonia'
p3903
g60
sS'Pomorskie'
p3904
g143
sS'Kocevje'
p3905
g312
sS'Udon Thani'
p3906
g978
sS'Barahona'
p3907
g74
sS'Izabal'
p3908
g202
sS'Efate'
p3909
g5
sS'Utenos Apskritis'
p3910
g674
sS'Upper River'
p3911
g42
sS'Peten'
p3912
g44
sS'Svay Rieng'
p3913
g27
sS'Gourma'
p3914
g20
sS'Karbinci'
p3915
g169
sS'Djibouti'
p3916
g193
sS'Doukkala-Abda'
p3917
g35
sS'Da Nang'
p3918
g314
sS'Lima'
p3919
g446
sS'Gaoual'
p3920
g44
sS'Al Hudud ash Shamaliyah'
p3921
g446
sS"Arkhangel'sk"
p3922
g17
sS'Los Lagos'
p3923
g106
sS'Xizang'
p3924
g106
sS'Erdenet'
p3925
g155
sS'Misiones'
p3926
g106
sS'Zambezia'
p3927
g202
sS'Esfahan'
p3928
g797
sS'Kalimantan Barat'
p3929
g115
sS'Jammu and Kashmir'
p3930
g44
sS'Hovsgol'
p3931
g48
sS'Batman'
p3932
g978
sS'Noord-Holland'
p3933
g193
sS'Jalapa'
p3934
g67
sS'Herefordshire'
p3935
g1586
sS'Suourland'
p3936
g491
sS'Kabarole'
p3937
g294
sS'Vrapciste'
p3938
g1629
sS'Puebla'
p3939
g50
sS'Zrece'
p3940
g455
sS'Poole'
p3941
g2262
sS'Szekszard'
p3942
g491
sS'Tachira'
p3943
g279
sS'Sagarejos Raioni'
p3944
g191
sS"T'ianet'is Raioni"
p3945
g513
sS'Velenje'
p3946
g3619
sS'Vrhnika'
p3947
g1788
sS'Bucuresti'
p3948
g67
sS'Nakhon Sawan'
p3949
g33
sS'Phu Tho'
p3950
g198
sS'Mukono'
p3951
g642
sS'Kjosarsysla'
p3952
g446
sS'Rogasovci'
p3953
g125
sS'Pailin'
p3954
g277
sS'Kolda'
p3955
g115
sS'Katakwi'
p3956
g63
sS'Champasak'
p3957
g7
sS'Flintshire'
p3958
S'Y1'
p3959
sS'Caqueta'
p3960
g5
sS'Sliven'
p3961
g60
sS'Oberosterreich'
p3962
g42
sS'Kamphaeng Phet'
p3963
g115
sS'Laane-Virumaa'
p3964
g5
sS'Solothurn'
p3965
g27
sS'Shumen'
p3966
g56
sS'Csongrad'
p3967
g17
sS'Thurgau'
p3968
g100
sS'Mont Buxton'
p3969
g11
sS'Marijampoles Apskritis'
p3970
g374
sS'Nimruz'
p3971
g100
sS'Gostivar'
p3972
g1056
sS'Qyzylorda'
p3973
g106
sS'Saint Andrew'
p3974
g17
sS'Western Cape'
p3975
g115
sS'Sud-Kivu'
p3976
g44
sS'Newport'
p3977
S'Y6'
p3978
sS'Likouala'
p3979
g17
sS'Veracruz-Llave'
p3980
g277
sS'Ar Rayyan'
p3981
g17
sS'Muta'
p3982
g52
sS'San Jose de Ocoa'
p3983
g356
sS'New Jersey'
p3984
S'NJ'
p3985
sS'Maguindanao'
p3986
g60
sS'Kampong Cham'
p3987
g7
sS'Darlington'
p3988
g555
sS'Paramaribo'
p3989
g33
sS'Seno'
p3990
g957
sS'Sawfajjin'
p3991
g374
sS'Monte-Carlo'
p3992
g74
sS'Kumamoto'
p3993
g50
sS'Musandam'
p3994
g193
sS'Radenci'
p3995
g244
sS"Zakarpats'ka Oblast'"
p3996
g733
sS'Chiang Rai'
p3997
g74
sS'Wisconsin'
p3998
S'WI'
p3999
sS'Khon Kaen'
p4000
g155
sS'Al Janub'
p4001
g7
sS'Sabirabad'
p4002
g15
sS'Mayaguana'
p4003
g33
sS'Jamtlands Lan'
p4004
g193
sS'Aiana'
p4005
g58
sS'Sankt Gallen'
p4006
g446
sS'Sakhalin'
p4007
g674
sS'Vojvodina'
p4008
g7
sS'Kidricevo'
p4009
g112
sS"P'yongyang-si"
p4010
g44
sS'Lempira'
p4011
g48
sS'Kursk'
p4012
g9
sS'Thessaloniki'
p4013
g48
sS'Ludzas'
p4014
g100
sS'Westmeath'
p4015
g354
sS'Oruzgan'
p4016
g306
sS'Middlesbrough'
p4017
S'I5'
p4018
sS'Meta'
p4019
g100
sS'Quebec'
p4020
S'QC'
p4021
sS'Tatabanya'
p4022
g58
sS'Grand Casablanca'
p4023
g112
sS'Pomeroon-Supenaam'
p4024
g33
sS'Guarico'
p4025
g44
sS'Nghe An'
p4026
g1420
sS'Hefa'
p4027
g42
sS'Balikesir'
p4028
g67
sS'Eastern Highlands'
p4029
g202
sS'Kotido'
p4030
g112
sS'Probistip'
p4031
g198
sS'Valverde'
p4032
g227
sS'Malampa'
p4033
g33
sS'Hawalli'
p4034
g5
sS'Nariva'
p4035
g42
sS'Criuleni'
p4036
g63
sS'Dmanisis Raioni'
p4037
g27
sS'Taraba'
p4038
g437
sS'Groningen'
p4039
g42
sS'Ntungamo'
p4040
g374
sS'North Dakota'
p4041
S'ND'
p4042
sS'Islamabad'
p4043
g5
sS'Kepulauan Riau'
p4044
g169
sS'Wellington'
p4045
g167
sS'Ialoveni'
p4046
g314
sS'New Brunswick'
p4047
S'NB'
p4048
sS'Murska Sobota'
p4049
g620
sS'Madaba'
p4050
g103
sS'Tadla-Azilal'
p4051
g60
sS'Dhi Qar'
p4052
g202
sS'Al Ghuwariyah'
p4053
g7
sS'Eastern Samar'
p4054
g103
sS'Southwark'
p4055
S'M8'
p4056
sS'Adis Abeba'
p4057
g138
sS'Chongqing'
p4058
g345
sS'Ehime'
p4059
g54
sS'Brda'
p4060
g193
sS"As Suwayda'"
p4061
g54
sS'Vesturland'
p4062
g112
sS'Federally Administered Tribal Areas'
p4063
g71
sS'Usulutan'
p4064
g106
sS'Region Autonoma Atlantico Sur'
p4065
g27
sS'Naxcivan'
p4066
g249
sS"Syunik'"
p4067
g5
sS'Ba Ria-Vung Tau'
p4068
g324
sS'Hardap'
p4069
g277
sS'Prahova'
p4070
g277
sS'Sandaun'
p4071
g27
sS'Pembrokeshire'
p4072
S'Y7'
p4073
sS'West Sussex'
p4074
S'P6'
p4075
sS'Grand Gedeh'
p4076
g100
sS'Jujuy'
p4077
g67
sS'Moray'
p4078
S'V6'
p4079
sS'Zondoma'
p4080
g314
sS'Pusan-jikhalsi'
p4081
g67
sS'Cuscatlan'
p4082
g42
sS'Mechi'
p4083
g67
sS'Altaisky krai'
p4084
g42
sS'Volta'
p4085
g5
sS'Omusati'
p4086
g356
sS'Kalutara'
p4087
g202
sS'Kapchorwa'
p4088
g306
sS'Uige'
p4089
g446
sS'Tangub'
p4090
g2115
sS'Kilkis'
p4091
g17
sS'Saint John'
p4092
g42
sS'Denguele'
p4093
g204
sS'Bistrica'
p4094
g54
sS'Meghalaya'
p4095
g27
sS'Staro Nagoricane'
p4096
g216
sS'Al Kufrah'
p4097
g5
sS'Kandy'
p4098
g67
sS'Cholla-bukto'
p4099
g74
sS'Gitarama'
p4100
g17
sS'Dorset'
p4101
g1682
sS'Turnisce'
p4102
g1682
sS'Iloilo City'
p4103
g3078
sS'Salaj'
p4104
g87
sS'Gabu'
p4105
g67
sS'Grad Sofiya'
p4106
g491
sS'Nelson'
p4107
g3198
sS'Debub'
p4108
g7
sS'Agstafa'
p4109
g54
sS'North East Lincolnshire'
p4110
g2567
sS'Guam'
p4111
S'GU'
p4112
sS'Cavite City'
p4113
g772
sS'Onis Raioni'
p4114
g169
sS'Naga'
p4115
g2807
sS'Misratah'
p4116
g147
sS'Bogovinje'
p4117
g67
sS'Sud'
p4118
g44
sS'Borjomis Raioni'
p4119
g48
sS'Cochabamba'
p4120
g7
sS'Talas'
p4121
g17
sS'Samchi'
p4122
g33
sS'Sinaloa'
p4123
g733
sS'Rostusa'
p4124
g622
sS'Sighnaghis Raioni'
p4125
g20
sS'Armed Forces Americas'
p4126
S'AA'
p4127
sS'Tambovskaya oblast'
p4128
g236
sS'Kasai-Oriental'
p4129
g42
sS'Vaavu'
p4130
g191
sS'Bafing'
p4131
g77
sS'Xanlar'
p4132
g65
sS'Alytaus Apskritis'
p4133
g60
sS'Bubanza'
p4134
g202
sS'Binshangul Gumuz'
p4135
g191
sS'Sant Julia de Loria'
p4136
g17
sS'Kelantan'
p4137
g74
sS'Kraslavas'
p4138
g106
sS'Cheshire'
p4139
g707
sS'Bejaia'
p4140
g27
sS'Tagbilaran'
p4141
g145
sS'Litija'
p4142
g4018
sS'Mazowieckie'
p4143
g314
sS'Tartu'
p4144
g11
sS'Oubritenga'
p4145
g667
sS'Novosibirsk'
p4146
g324
sS'Mugla'
p4147
g240
sS'Fokis'
p4148
g13
sS'Vysocina'
p4149
g620
sS'Al Jufrah'
p4150
g54
sS'Castries'
p4151
g74
sS'Ioannina'
p4152
g11
sS'Adigenis Raioni'
p4153
g74
sS'Bali'
p4154
g7
sS'Bale'
p4155
g112
sS'Skagafjardarsysla'
p4156
g797
sS'Bundibugyo'
p4157
g797
sS'Veraguas'
p4158
g67
sS'Bradford'
p4159
g843
sS'Gaafu Alifu'
p4160
g1056
sS'Hordaland'
p4161
g193
sS'Olancho'
p4162
g446
sS'Cabrayil'
p4163
g106
sS'Rio San Juan'
p4164
g106
sS'Highland'
p4165
S'V3'
p4166
sS'Afar'
p4167
g112
sS'Narathiwat'
p4168
g87
sS'Viana do Castelo'
p4169
g279
sS'Konce'
p4170
g191
sS'Zalec'
p4171
g885
sS'Prachin Buri'
p4172
g112
sS'Kohtla-Jarve'
p4173
g17
sS'As Suways'
p4174
g446
sS'South Kazakhstan'
p4175
g67
sS'Karuzi'
p4176
g106
sS'Stockholms Lan'
p4177
g468
sS'North-Western'
p4178
g17
sS'Mashonaland East'
p4179
g42
sS'Al Jawf'
p4180
g50
sS'Oyo'
p4181
g13
sS'Ararat'
p4182
g7
sS'Omagh'
p4183
S'T3'
p4184
sS'Geneve'
p4185
g193
sS'Tarapaca'
p4186
g446
sS'Matale'
p4187
g106
sS'Finnmark'
p4188
g54
sS'Grad Zagreb'
p4189
g50
sS'Owambo'
p4190
g446
sS"Yaroslavl'"
p4191
g622
sS'Al Gharbiyah'
p4192
g54
sS'Blekinge Lan'
p4193
g7
sS'Amazonas'
p4194
g42
sS'Jiangsu'
p4195
g42
sS'Lam Dong'
p4196
g103
sS'Gloucestershire'
p4197
g961
sS'El Oued'
p4198
g437
sS'Aisen del General Carlos Ibanez del Campo'
p4199
g7
sS'Ile-de-France'
p4200
g890
sS'Oroquieta'
p4201
g1788
sS'Muyinga'
p4202
g27
sS'Campeche'
p4203
g42
sS'Los Santos'
p4204
g193
sS'Stockton-on-Tees'
p4205
g2560
sS'Carchi'
p4206
g54
sS'North Lanarkshire'
p4207
S'V8'
p4208
sS'Cuanza Sul'
p4209
g17
s.